
Qtouch_1MHz.elf:     file format elf32-avr

Sections:
Idx Name          Size      VMA       LMA       File off  Algn
  0 .data         00000046  00800100  00001764  000017f8  2**0
                  CONTENTS, ALLOC, LOAD, DATA
  1 .text         00001764  00000000  00000000  00000094  2**1
                  CONTENTS, ALLOC, LOAD, READONLY, CODE
  2 .bss          00000031  00800146  00800146  0000183e  2**0
                  ALLOC
  3 .comment      00000030  00000000  00000000  0000183e  2**0
                  CONTENTS, READONLY
  4 .note.gnu.avr.deviceinfo 00000040  00000000  00000000  00001870  2**2
                  CONTENTS, READONLY
  5 .debug_aranges 00000188  00000000  00000000  000018b0  2**0
                  CONTENTS, READONLY, DEBUGGING
  6 .debug_info   00001d66  00000000  00000000  00001a38  2**0
                  CONTENTS, READONLY, DEBUGGING
  7 .debug_abbrev 00000ef3  00000000  00000000  0000379e  2**0
                  CONTENTS, READONLY, DEBUGGING
  8 .debug_line   00000b0c  00000000  00000000  00004691  2**0
                  CONTENTS, READONLY, DEBUGGING
  9 .debug_frame  0000035c  00000000  00000000  000051a0  2**2
                  CONTENTS, READONLY, DEBUGGING
 10 .debug_str    00001292  00000000  00000000  000054fc  2**0
                  CONTENTS, READONLY, DEBUGGING
 11 .debug_loc    00000715  00000000  00000000  0000678e  2**0
                  CONTENTS, READONLY, DEBUGGING
 12 .debug_ranges 00000128  00000000  00000000  00006ea3  2**0
                  CONTENTS, READONLY, DEBUGGING

Disassembly of section .text:

00000000 <__vectors>:
       0:	0c 94 5a 00 	jmp	0xb4	; 0xb4 <__ctors_end>
       4:	0c 94 77 00 	jmp	0xee	; 0xee <__bad_interrupt>
       8:	0c 94 77 00 	jmp	0xee	; 0xee <__bad_interrupt>
       c:	0c 94 77 00 	jmp	0xee	; 0xee <__bad_interrupt>
      10:	0c 94 77 00 	jmp	0xee	; 0xee <__bad_interrupt>
      14:	0c 94 77 00 	jmp	0xee	; 0xee <__bad_interrupt>
      18:	0c 94 77 00 	jmp	0xee	; 0xee <__bad_interrupt>
      1c:	0c 94 77 00 	jmp	0xee	; 0xee <__bad_interrupt>
      20:	0c 94 77 00 	jmp	0xee	; 0xee <__bad_interrupt>
      24:	0c 94 77 00 	jmp	0xee	; 0xee <__bad_interrupt>
      28:	0c 94 77 00 	jmp	0xee	; 0xee <__bad_interrupt>
      2c:	0c 94 fb 01 	jmp	0x3f6	; 0x3f6 <__vector_11>
      30:	0c 94 77 00 	jmp	0xee	; 0xee <__bad_interrupt>
      34:	0c 94 77 00 	jmp	0xee	; 0xee <__bad_interrupt>
      38:	0c 94 7e 00 	jmp	0xfc	; 0xfc <__vector_14>
      3c:	0c 94 77 00 	jmp	0xee	; 0xee <__bad_interrupt>
      40:	0c 94 77 00 	jmp	0xee	; 0xee <__bad_interrupt>
      44:	0c 94 77 00 	jmp	0xee	; 0xee <__bad_interrupt>
      48:	0c 94 77 00 	jmp	0xee	; 0xee <__bad_interrupt>
      4c:	0c 94 77 00 	jmp	0xee	; 0xee <__bad_interrupt>
      50:	0c 94 77 00 	jmp	0xee	; 0xee <__bad_interrupt>
      54:	0c 94 77 00 	jmp	0xee	; 0xee <__bad_interrupt>
      58:	0c 94 77 00 	jmp	0xee	; 0xee <__bad_interrupt>
      5c:	0c 94 77 00 	jmp	0xee	; 0xee <__bad_interrupt>
      60:	0c 94 77 00 	jmp	0xee	; 0xee <__bad_interrupt>
      64:	0c 94 77 00 	jmp	0xee	; 0xee <__bad_interrupt>
      68:	0c 94 77 00 	jmp	0xee	; 0xee <__bad_interrupt>
      6c:	0c 94 77 00 	jmp	0xee	; 0xee <__bad_interrupt>
      70:	0c 94 77 00 	jmp	0xee	; 0xee <__bad_interrupt>
      74:	0c 94 77 00 	jmp	0xee	; 0xee <__bad_interrupt>
      78:	0c 94 77 00 	jmp	0xee	; 0xee <__bad_interrupt>
      7c:	0c 94 77 00 	jmp	0xee	; 0xee <__bad_interrupt>
      80:	0c 94 77 00 	jmp	0xee	; 0xee <__bad_interrupt>
      84:	0c 94 77 00 	jmp	0xee	; 0xee <__bad_interrupt>
      88:	0c 94 77 00 	jmp	0xee	; 0xee <__bad_interrupt>
      8c:	0c 94 77 00 	jmp	0xee	; 0xee <__bad_interrupt>
      90:	0c 94 77 00 	jmp	0xee	; 0xee <__bad_interrupt>
      94:	0c 94 af 02 	jmp	0x55e	; 0x55e <__vector_37>
      98:	0c 94 77 00 	jmp	0xee	; 0xee <__bad_interrupt>
      9c:	0c 94 77 00 	jmp	0xee	; 0xee <__bad_interrupt>
      a0:	0c 94 77 00 	jmp	0xee	; 0xee <__bad_interrupt>
      a4:	0c 94 77 00 	jmp	0xee	; 0xee <__bad_interrupt>
      a8:	0c 94 77 00 	jmp	0xee	; 0xee <__bad_interrupt>
      ac:	0c 94 77 00 	jmp	0xee	; 0xee <__bad_interrupt>
      b0:	0c 94 77 00 	jmp	0xee	; 0xee <__bad_interrupt>

000000b4 <__ctors_end>:
      b4:	11 24       	eor	r1, r1
      b6:	1f be       	out	0x3f, r1	; 63
      b8:	cf ef       	ldi	r28, 0xFF	; 255
      ba:	d8 e0       	ldi	r29, 0x08	; 8
      bc:	de bf       	out	0x3e, r29	; 62
      be:	cd bf       	out	0x3d, r28	; 61

000000c0 <__do_copy_data>:
      c0:	11 e0       	ldi	r17, 0x01	; 1
      c2:	a0 e0       	ldi	r26, 0x00	; 0
      c4:	b1 e0       	ldi	r27, 0x01	; 1
      c6:	e4 e6       	ldi	r30, 0x64	; 100
      c8:	f7 e1       	ldi	r31, 0x17	; 23
      ca:	02 c0       	rjmp	.+4      	; 0xd0 <__do_copy_data+0x10>
      cc:	05 90       	lpm	r0, Z+
      ce:	0d 92       	st	X+, r0
      d0:	a6 34       	cpi	r26, 0x46	; 70
      d2:	b1 07       	cpc	r27, r17
      d4:	d9 f7       	brne	.-10     	; 0xcc <__do_copy_data+0xc>

000000d6 <__do_clear_bss>:
      d6:	21 e0       	ldi	r18, 0x01	; 1
      d8:	a6 e4       	ldi	r26, 0x46	; 70
      da:	b1 e0       	ldi	r27, 0x01	; 1
      dc:	01 c0       	rjmp	.+2      	; 0xe0 <.do_clear_bss_start>

000000de <.do_clear_bss_loop>:
      de:	1d 92       	st	X+, r1

000000e0 <.do_clear_bss_start>:
      e0:	a7 37       	cpi	r26, 0x77	; 119
      e2:	b2 07       	cpc	r27, r18
      e4:	e1 f7       	brne	.-8      	; 0xde <.do_clear_bss_loop>
      e6:	0e 94 d2 01 	call	0x3a4	; 0x3a4 <main>
      ea:	0c 94 b0 0b 	jmp	0x1760	; 0x1760 <_exit>

000000ee <__bad_interrupt>:
      ee:	0c 94 00 00 	jmp	0	; 0x0 <__vectors>

000000f2 <atmel_start_init>:
/**
 * Initializes MCU, drivers and middleware in the project
 **/
void atmel_start_init(void)
{
	system_init();
      f2:	0e 94 d3 02 	call	0x5a6	; 0x5a6 <system_init>

	touch_init();
      f6:	0e 94 29 02 	call	0x452	; 0x452 <touch_init>
      fa:	08 95       	ret

000000fc <__vector_14>:

#include <driver_init.h>
#include <compiler.h>

ISR(TIMER0_COMPA_vect)
{
      fc:	1f 92       	push	r1
      fe:	0f 92       	push	r0
     100:	0f b6       	in	r0, 0x3f	; 63
     102:	0f 92       	push	r0
     104:	11 24       	eor	r1, r1
     106:	2f 93       	push	r18
     108:	3f 93       	push	r19
     10a:	4f 93       	push	r20
     10c:	5f 93       	push	r21
     10e:	6f 93       	push	r22
     110:	7f 93       	push	r23
     112:	8f 93       	push	r24
     114:	9f 93       	push	r25
     116:	af 93       	push	r26
     118:	bf 93       	push	r27
     11a:	ef 93       	push	r30
     11c:	ff 93       	push	r31

	mega_touch_timer();
     11e:	0e 94 89 02 	call	0x512	; 0x512 <mega_touch_timer>

	/* Clear the timer flag */
	TIFR0 |= OCF0A;
     122:	a8 9a       	sbi	0x15, 0	; 21
}
     124:	ff 91       	pop	r31
     126:	ef 91       	pop	r30
     128:	bf 91       	pop	r27
     12a:	af 91       	pop	r26
     12c:	9f 91       	pop	r25
     12e:	8f 91       	pop	r24
     130:	7f 91       	pop	r23
     132:	6f 91       	pop	r22
     134:	5f 91       	pop	r21
     136:	4f 91       	pop	r20
     138:	3f 91       	pop	r19
     13a:	2f 91       	pop	r18
     13c:	0f 90       	pop	r0
     13e:	0f be       	out	0x3f, r0	; 63
     140:	0f 90       	pop	r0
     142:	1f 90       	pop	r1
     144:	18 95       	reti

00000146 <is_touched>:
	/*for(int i = 0; i < Delay_Time; i++)
	{
		_delay_ms(10);
	}*/
	OCR1A = Delay;
}
     146:	0e 94 4d 02 	call	0x49a	; 0x49a <touch_process>
     14a:	80 e0       	ldi	r24, 0x00	; 0
     14c:	90 e0       	ldi	r25, 0x00	; 0
     14e:	0e 94 a0 02 	call	0x540	; 0x540 <get_sensor_state>
     152:	08 2e       	mov	r0, r24
     154:	00 0c       	add	r0, r0
     156:	99 0b       	sbc	r25, r25
     158:	89 2f       	mov	r24, r25
     15a:	88 1f       	adc	r24, r24
     15c:	88 27       	eor	r24, r24
     15e:	88 1f       	adc	r24, r24
     160:	90 e0       	ldi	r25, 0x00	; 0
     162:	08 95       	ret

00000164 <FlashPort>:
     164:	9c 01       	movw	r18, r24
     166:	24 50       	subi	r18, 0x04	; 4
     168:	31 09       	sbc	r19, r1
     16a:	29 30       	cpi	r18, 0x09	; 9
     16c:	31 05       	cpc	r19, r1
     16e:	80 f0       	brcs	.+32     	; 0x190 <FlashPort+0x2c>
     170:	4b b1       	in	r20, 0x0b	; 11
     172:	fc 01       	movw	r30, r24
     174:	ea 5f       	subi	r30, 0xFA	; 250
     176:	fe 4f       	sbci	r31, 0xFE	; 254
     178:	21 e0       	ldi	r18, 0x01	; 1
     17a:	30 e0       	ldi	r19, 0x00	; 0
     17c:	c9 01       	movw	r24, r18
     17e:	00 80       	ld	r0, Z
     180:	02 c0       	rjmp	.+4      	; 0x186 <FlashPort+0x22>
     182:	88 0f       	add	r24, r24
     184:	99 1f       	adc	r25, r25
     186:	0a 94       	dec	r0
     188:	e2 f7       	brpl	.-8      	; 0x182 <FlashPort+0x1e>
     18a:	84 2b       	or	r24, r20
     18c:	8b b9       	out	0x0b, r24	; 11
     18e:	08 95       	ret
     190:	88 30       	cpi	r24, 0x08	; 8
     192:	91 05       	cpc	r25, r1
     194:	84 f4       	brge	.+32     	; 0x1b6 <FlashPort+0x52>
     196:	48 b1       	in	r20, 0x08	; 8
     198:	fc 01       	movw	r30, r24
     19a:	ea 5f       	subi	r30, 0xFA	; 250
     19c:	fe 4f       	sbci	r31, 0xFE	; 254
     19e:	21 e0       	ldi	r18, 0x01	; 1
     1a0:	30 e0       	ldi	r19, 0x00	; 0
     1a2:	c9 01       	movw	r24, r18
     1a4:	00 80       	ld	r0, Z
     1a6:	02 c0       	rjmp	.+4      	; 0x1ac <FlashPort+0x48>
     1a8:	88 0f       	add	r24, r24
     1aa:	99 1f       	adc	r25, r25
     1ac:	0a 94       	dec	r0
     1ae:	e2 f7       	brpl	.-8      	; 0x1a8 <FlashPort+0x44>
     1b0:	84 2b       	or	r24, r20
     1b2:	88 b9       	out	0x08, r24	; 8
     1b4:	08 95       	ret
     1b6:	45 b1       	in	r20, 0x05	; 5
     1b8:	fc 01       	movw	r30, r24
     1ba:	ea 5f       	subi	r30, 0xFA	; 250
     1bc:	fe 4f       	sbci	r31, 0xFE	; 254
     1be:	21 e0       	ldi	r18, 0x01	; 1
     1c0:	30 e0       	ldi	r19, 0x00	; 0
     1c2:	c9 01       	movw	r24, r18
     1c4:	00 80       	ld	r0, Z
     1c6:	02 c0       	rjmp	.+4      	; 0x1cc <FlashPort+0x68>
     1c8:	88 0f       	add	r24, r24
     1ca:	99 1f       	adc	r25, r25
     1cc:	0a 94       	dec	r0
     1ce:	e2 f7       	brpl	.-8      	; 0x1c8 <FlashPort+0x64>
     1d0:	84 2b       	or	r24, r20
     1d2:	85 b9       	out	0x05, r24	; 5
     1d4:	08 95       	ret

000001d6 <Cycle_lights>:
     1d6:	8b b1       	in	r24, 0x0b	; 11
     1d8:	1b b8       	out	0x0b, r1	; 11
     1da:	85 b1       	in	r24, 0x05	; 5
     1dc:	15 b8       	out	0x05, r1	; 5
     1de:	88 b1       	in	r24, 0x08	; 8
     1e0:	18 b8       	out	0x08, r1	; 8
     1e2:	80 91 48 01 	lds	r24, 0x0148	; 0x800148 <Flashreg>
     1e6:	90 91 49 01 	lds	r25, 0x0149	; 0x800149 <Flashreg+0x1>
     1ea:	0e 94 b2 00 	call	0x164	; 0x164 <FlashPort>
     1ee:	80 91 48 01 	lds	r24, 0x0148	; 0x800148 <Flashreg>
     1f2:	90 91 49 01 	lds	r25, 0x0149	; 0x800149 <Flashreg+0x1>
     1f6:	01 96       	adiw	r24, 0x01	; 1
     1f8:	8f 70       	andi	r24, 0x0F	; 15
     1fa:	99 27       	eor	r25, r25
     1fc:	90 93 49 01 	sts	0x0149, r25	; 0x800149 <Flashreg+0x1>
     200:	80 93 48 01 	sts	0x0148, r24	; 0x800148 <Flashreg>
     204:	80 91 02 01 	lds	r24, 0x0102	; 0x800102 <Delay_Time>
     208:	90 91 03 01 	lds	r25, 0x0103	; 0x800103 <Delay_Time+0x1>
     20c:	90 93 89 00 	sts	0x0089, r25	; 0x800089 <__TEXT_REGION_LENGTH__+0x7f8089>
     210:	80 93 88 00 	sts	0x0088, r24	; 0x800088 <__TEXT_REGION_LENGTH__+0x7f8088>
     214:	08 95       	ret

00000216 <Cycle_lights_Rev>:
     216:	8b b1       	in	r24, 0x0b	; 11
     218:	1b b8       	out	0x0b, r1	; 11
     21a:	85 b1       	in	r24, 0x05	; 5
     21c:	15 b8       	out	0x05, r1	; 5
     21e:	88 b1       	in	r24, 0x08	; 8
     220:	18 b8       	out	0x08, r1	; 8
     222:	80 91 48 01 	lds	r24, 0x0148	; 0x800148 <Flashreg>
     226:	90 91 49 01 	lds	r25, 0x0149	; 0x800149 <Flashreg+0x1>
     22a:	0e 94 b2 00 	call	0x164	; 0x164 <FlashPort>
     22e:	80 91 48 01 	lds	r24, 0x0148	; 0x800148 <Flashreg>
     232:	90 91 49 01 	lds	r25, 0x0149	; 0x800149 <Flashreg+0x1>
     236:	01 97       	sbiw	r24, 0x01	; 1
     238:	90 93 49 01 	sts	0x0149, r25	; 0x800149 <Flashreg+0x1>
     23c:	80 93 48 01 	sts	0x0148, r24	; 0x800148 <Flashreg>
     240:	80 91 48 01 	lds	r24, 0x0148	; 0x800148 <Flashreg>
     244:	90 91 49 01 	lds	r25, 0x0149	; 0x800149 <Flashreg+0x1>
     248:	99 23       	and	r25, r25
     24a:	34 f4       	brge	.+12     	; 0x258 <Cycle_lights_Rev+0x42>
     24c:	8f e0       	ldi	r24, 0x0F	; 15
     24e:	90 e0       	ldi	r25, 0x00	; 0
     250:	90 93 49 01 	sts	0x0149, r25	; 0x800149 <Flashreg+0x1>
     254:	80 93 48 01 	sts	0x0148, r24	; 0x800148 <Flashreg>
     258:	80 91 02 01 	lds	r24, 0x0102	; 0x800102 <Delay_Time>
     25c:	90 91 03 01 	lds	r25, 0x0103	; 0x800103 <Delay_Time+0x1>
     260:	90 93 89 00 	sts	0x0089, r25	; 0x800089 <__TEXT_REGION_LENGTH__+0x7f8089>
     264:	80 93 88 00 	sts	0x0088, r24	; 0x800088 <__TEXT_REGION_LENGTH__+0x7f8088>
     268:	08 95       	ret

0000026a <Light_Direction>:
     26a:	80 91 04 01 	lds	r24, 0x0104	; 0x800104 <Direction>
     26e:	90 91 05 01 	lds	r25, 0x0105	; 0x800105 <Direction+0x1>
     272:	89 2b       	or	r24, r25
     274:	19 f0       	breq	.+6      	; 0x27c <Light_Direction+0x12>
     276:	0e 94 eb 00 	call	0x1d6	; 0x1d6 <Cycle_lights>
     27a:	08 95       	ret
     27c:	0e 94 0b 01 	call	0x216	; 0x216 <Cycle_lights_Rev>
     280:	08 95       	ret

00000282 <All_On>:
     282:	ac 01       	movw	r20, r24
     284:	18 16       	cp	r1, r24
     286:	19 06       	cpc	r1, r25
     288:	1c f5       	brge	.+70     	; 0x2d0 <All_On+0x4e>
     28a:	20 e0       	ldi	r18, 0x00	; 0
     28c:	30 e0       	ldi	r19, 0x00	; 0
     28e:	85 b1       	in	r24, 0x05	; 5
     290:	15 b8       	out	0x05, r1	; 5
     292:	9b b1       	in	r25, 0x0b	; 11
     294:	98 70       	andi	r25, 0x08	; 8
     296:	9b b9       	out	0x0b, r25	; 11
     298:	88 b1       	in	r24, 0x08	; 8
     29a:	18 b8       	out	0x08, r1	; 8
     29c:	87 ea       	ldi	r24, 0xA7	; 167
     29e:	91 e6       	ldi	r25, 0x61	; 97
     2a0:	01 97       	sbiw	r24, 0x01	; 1
     2a2:	f1 f7       	brne	.-4      	; 0x2a0 <All_On+0x1e>
     2a4:	00 c0       	rjmp	.+0      	; 0x2a6 <All_On+0x24>
     2a6:	00 00       	nop
     2a8:	95 b1       	in	r25, 0x05	; 5
     2aa:	9f 61       	ori	r25, 0x1F	; 31
     2ac:	95 b9       	out	0x05, r25	; 5
     2ae:	9b b1       	in	r25, 0x0b	; 11
     2b0:	9f 6e       	ori	r25, 0xEF	; 239
     2b2:	9b b9       	out	0x0b, r25	; 11
     2b4:	98 b1       	in	r25, 0x08	; 8
     2b6:	9c 63       	ori	r25, 0x3C	; 60
     2b8:	98 b9       	out	0x08, r25	; 8
     2ba:	87 ea       	ldi	r24, 0xA7	; 167
     2bc:	91 e6       	ldi	r25, 0x61	; 97
     2be:	01 97       	sbiw	r24, 0x01	; 1
     2c0:	f1 f7       	brne	.-4      	; 0x2be <All_On+0x3c>
     2c2:	00 c0       	rjmp	.+0      	; 0x2c4 <All_On+0x42>
     2c4:	00 00       	nop
     2c6:	2f 5f       	subi	r18, 0xFF	; 255
     2c8:	3f 4f       	sbci	r19, 0xFF	; 255
     2ca:	42 17       	cp	r20, r18
     2cc:	53 07       	cpc	r21, r19
     2ce:	f9 f6       	brne	.-66     	; 0x28e <All_On+0xc>
     2d0:	08 95       	ret

000002d2 <Did_you_catch_the_light>:
     2d2:	10 92 01 01 	sts	0x0101, r1	; 0x800101 <__DATA_REGION_ORIGIN__+0x1>
     2d6:	10 92 00 01 	sts	0x0100, r1	; 0x800100 <__DATA_REGION_ORIGIN__>
     2da:	80 91 48 01 	lds	r24, 0x0148	; 0x800148 <Flashreg>
     2de:	90 91 49 01 	lds	r25, 0x0149	; 0x800149 <Flashreg+0x1>
     2e2:	89 2b       	or	r24, r25
     2e4:	c9 f5       	brne	.+114    	; 0x358 <Did_you_catch_the_light+0x86>
     2e6:	85 e0       	ldi	r24, 0x05	; 5
     2e8:	90 e0       	ldi	r25, 0x00	; 0
     2ea:	0e 94 41 01 	call	0x282	; 0x282 <All_On>
     2ee:	80 91 04 01 	lds	r24, 0x0104	; 0x800104 <Direction>
     2f2:	90 91 05 01 	lds	r25, 0x0105	; 0x800105 <Direction+0x1>
     2f6:	21 e0       	ldi	r18, 0x01	; 1
     2f8:	82 27       	eor	r24, r18
     2fa:	90 93 05 01 	sts	0x0105, r25	; 0x800105 <Direction+0x1>
     2fe:	80 93 04 01 	sts	0x0104, r24	; 0x800104 <Direction>
     302:	80 91 46 01 	lds	r24, 0x0146	; 0x800146 <__data_end>
     306:	90 91 47 01 	lds	r25, 0x0147	; 0x800147 <__data_end+0x1>
     30a:	02 97       	sbiw	r24, 0x02	; 2
     30c:	dc f0       	brlt	.+54     	; 0x344 <Did_you_catch_the_light+0x72>
     30e:	80 91 02 01 	lds	r24, 0x0102	; 0x800102 <Delay_Time>
     312:	90 91 03 01 	lds	r25, 0x0103	; 0x800103 <Delay_Time+0x1>
     316:	8e 54       	subi	r24, 0x4E	; 78
     318:	91 09       	sbc	r25, r1
     31a:	90 93 03 01 	sts	0x0103, r25	; 0x800103 <Delay_Time+0x1>
     31e:	80 93 02 01 	sts	0x0102, r24	; 0x800102 <Delay_Time>
     322:	80 91 02 01 	lds	r24, 0x0102	; 0x800102 <Delay_Time>
     326:	90 91 03 01 	lds	r25, 0x0103	; 0x800103 <Delay_Time+0x1>
     32a:	18 16       	cp	r1, r24
     32c:	19 06       	cpc	r1, r25
     32e:	54 f0       	brlt	.+20     	; 0x344 <Did_you_catch_the_light+0x72>
     330:	86 e8       	ldi	r24, 0x86	; 134
     332:	91 e0       	ldi	r25, 0x01	; 1
     334:	90 93 03 01 	sts	0x0103, r25	; 0x800103 <Delay_Time+0x1>
     338:	80 93 02 01 	sts	0x0102, r24	; 0x800102 <Delay_Time>
     33c:	10 92 47 01 	sts	0x0147, r1	; 0x800147 <__data_end+0x1>
     340:	10 92 46 01 	sts	0x0146, r1	; 0x800146 <__data_end>
     344:	80 91 46 01 	lds	r24, 0x0146	; 0x800146 <__data_end>
     348:	90 91 47 01 	lds	r25, 0x0147	; 0x800147 <__data_end+0x1>
     34c:	01 96       	adiw	r24, 0x01	; 1
     34e:	90 93 47 01 	sts	0x0147, r25	; 0x800147 <__data_end+0x1>
     352:	80 93 46 01 	sts	0x0146, r24	; 0x800146 <__data_end>
     356:	1f c0       	rjmp	.+62     	; 0x396 <Did_you_catch_the_light+0xc4>
     358:	8b b1       	in	r24, 0x0b	; 11
     35a:	1b b8       	out	0x0b, r1	; 11
     35c:	85 b1       	in	r24, 0x05	; 5
     35e:	15 b8       	out	0x05, r1	; 5
     360:	88 b1       	in	r24, 0x08	; 8
     362:	18 b8       	out	0x08, r1	; 8
     364:	80 91 48 01 	lds	r24, 0x0148	; 0x800148 <Flashreg>
     368:	90 91 49 01 	lds	r25, 0x0149	; 0x800149 <Flashreg+0x1>
     36c:	0e 94 b2 00 	call	0x164	; 0x164 <FlashPort>
     370:	8f e3       	ldi	r24, 0x3F	; 63
     372:	9d e0       	ldi	r25, 0x0D	; 13
     374:	23 e0       	ldi	r18, 0x03	; 3
     376:	81 50       	subi	r24, 0x01	; 1
     378:	90 40       	sbci	r25, 0x00	; 0
     37a:	20 40       	sbci	r18, 0x00	; 0
     37c:	e1 f7       	brne	.-8      	; 0x376 <Did_you_catch_the_light+0xa4>
     37e:	00 c0       	rjmp	.+0      	; 0x380 <Did_you_catch_the_light+0xae>
     380:	00 00       	nop
     382:	86 e8       	ldi	r24, 0x86	; 134
     384:	91 e0       	ldi	r25, 0x01	; 1
     386:	90 93 03 01 	sts	0x0103, r25	; 0x800103 <Delay_Time+0x1>
     38a:	80 93 02 01 	sts	0x0102, r24	; 0x800102 <Delay_Time>
     38e:	10 92 47 01 	sts	0x0147, r1	; 0x800147 <__data_end+0x1>
     392:	10 92 46 01 	sts	0x0146, r1	; 0x800146 <__data_end>
     396:	81 e0       	ldi	r24, 0x01	; 1
     398:	90 e0       	ldi	r25, 0x00	; 0
     39a:	90 93 01 01 	sts	0x0101, r25	; 0x800101 <__DATA_REGION_ORIGIN__+0x1>
     39e:	80 93 00 01 	sts	0x0100, r24	; 0x800100 <__DATA_REGION_ORIGIN__>
     3a2:	08 95       	ret

000003a4 <main>:
     3a4:	8f ef       	ldi	r24, 0xFF	; 255
     3a6:	8a b9       	out	0x0a, r24	; 10
     3a8:	84 b9       	out	0x04, r24	; 4
     3aa:	87 b9       	out	0x07, r24	; 7
     3ac:	85 b1       	in	r24, 0x05	; 5
     3ae:	85 b9       	out	0x05, r24	; 5
     3b0:	8b b1       	in	r24, 0x0b	; 11
     3b2:	8b b9       	out	0x0b, r24	; 11
     3b4:	88 b1       	in	r24, 0x08	; 8
     3b6:	88 b9       	out	0x08, r24	; 8
     3b8:	0e 94 79 00 	call	0xf2	; 0xf2 <atmel_start_init>
     3bc:	78 94       	sei
     3be:	82 e0       	ldi	r24, 0x02	; 2
     3c0:	80 93 80 00 	sts	0x0080, r24	; 0x800080 <__TEXT_REGION_LENGTH__+0x7f8080>
     3c4:	94 e0       	ldi	r25, 0x04	; 4
     3c6:	90 93 81 00 	sts	0x0081, r25	; 0x800081 <__TEXT_REGION_LENGTH__+0x7f8081>
     3ca:	80 93 6f 00 	sts	0x006F, r24	; 0x80006f <__TEXT_REGION_LENGTH__+0x7f806f>
     3ce:	80 91 02 01 	lds	r24, 0x0102	; 0x800102 <Delay_Time>
     3d2:	90 91 03 01 	lds	r25, 0x0103	; 0x800103 <Delay_Time+0x1>
     3d6:	90 93 89 00 	sts	0x0089, r25	; 0x800089 <__TEXT_REGION_LENGTH__+0x7f8089>
     3da:	80 93 88 00 	sts	0x0088, r24	; 0x800088 <__TEXT_REGION_LENGTH__+0x7f8088>
     3de:	78 94       	sei
     3e0:	0e 94 a3 00 	call	0x146	; 0x146 <is_touched>
     3e4:	89 2b       	or	r24, r25
     3e6:	e1 f3       	breq	.-8      	; 0x3e0 <main+0x3c>
     3e8:	0e 94 69 01 	call	0x2d2	; 0x2d2 <Did_you_catch_the_light>
     3ec:	0e 94 a3 00 	call	0x146	; 0x146 <is_touched>
     3f0:	89 2b       	or	r24, r25
     3f2:	e1 f7       	brne	.-8      	; 0x3ec <main+0x48>
     3f4:	f5 cf       	rjmp	.-22     	; 0x3e0 <main+0x3c>

000003f6 <__vector_11>:

ISR(TIMER1_COMPA_vect)
{
     3f6:	1f 92       	push	r1
     3f8:	0f 92       	push	r0
     3fa:	0f b6       	in	r0, 0x3f	; 63
     3fc:	0f 92       	push	r0
     3fe:	11 24       	eor	r1, r1
     400:	2f 93       	push	r18
     402:	3f 93       	push	r19
     404:	4f 93       	push	r20
     406:	5f 93       	push	r21
     408:	6f 93       	push	r22
     40a:	7f 93       	push	r23
     40c:	8f 93       	push	r24
     40e:	9f 93       	push	r25
     410:	af 93       	push	r26
     412:	bf 93       	push	r27
     414:	ef 93       	push	r30
     416:	ff 93       	push	r31
	if (Flag)
     418:	80 91 00 01 	lds	r24, 0x0100	; 0x800100 <__DATA_REGION_ORIGIN__>
     41c:	90 91 01 01 	lds	r25, 0x0101	; 0x800101 <__DATA_REGION_ORIGIN__+0x1>
     420:	89 2b       	or	r24, r25
     422:	11 f0       	breq	.+4      	; 0x428 <__EEPROM_REGION_LENGTH__+0x28>
	Light_Direction();
     424:	0e 94 35 01 	call	0x26a	; 0x26a <Light_Direction>
     428:	ff 91       	pop	r31
     42a:	ef 91       	pop	r30
     42c:	bf 91       	pop	r27
     42e:	af 91       	pop	r26
     430:	9f 91       	pop	r25
     432:	8f 91       	pop	r24
     434:	7f 91       	pop	r23
     436:	6f 91       	pop	r22
     438:	5f 91       	pop	r21
     43a:	4f 91       	pop	r20
     43c:	3f 91       	pop	r19
     43e:	2f 91       	pop	r18
     440:	0f 90       	pop	r0
     442:	0f be       	out	0x3f, r0	; 63
     444:	0f 90       	pop	r0
     446:	1f 90       	pop	r1
     448:	18 95       	reti

0000044a <qtm_measure_complete_callback>:
{
	/* Calibrate Node */
	qtm_calibrate_sensor_node(&qtlib_acq_set1, sensor_node);
	/* Initialize key */
	qtm_init_sensor_key(&qtlib_key_set1, sensor_node, &ptc_qtlib_node_stat1[sensor_node]);
}
     44a:	81 e0       	ldi	r24, 0x01	; 1
     44c:	80 93 4e 01 	sts	0x014E, r24	; 0x80014e <touch_postprocess_request>
     450:	08 95       	ret

00000452 <touch_init>:
     452:	88 e0       	ldi	r24, 0x08	; 8
     454:	87 bd       	out	0x27, r24	; 39
     456:	e5 e6       	ldi	r30, 0x65	; 101
     458:	f0 e0       	ldi	r31, 0x00	; 0
     45a:	80 81       	ld	r24, Z
     45c:	8f 7e       	andi	r24, 0xEF	; 239
     45e:	80 83       	st	Z, r24
     460:	73 98       	cbi	0x0e, 3	; 14
     462:	8b e2       	ldi	r24, 0x2B	; 43
     464:	91 e0       	ldi	r25, 0x01	; 1
     466:	0e 94 77 09 	call	0x12ee	; 0x12ee <qtm_ptc_init_acquisition_module>
     46a:	8b e6       	ldi	r24, 0x6B	; 107
     46c:	91 e0       	ldi	r25, 0x01	; 1
     46e:	0e 94 fe 09 	call	0x13fc	; 0x13fc <qtm_ptc_qtlib_assign_signal_memory>
     472:	60 e0       	ldi	r22, 0x00	; 0
     474:	70 e0       	ldi	r23, 0x00	; 0
     476:	8b e2       	ldi	r24, 0x2B	; 43
     478:	91 e0       	ldi	r25, 0x01	; 1
     47a:	0e 94 01 0b 	call	0x1602	; 0x1602 <qtm_enable_sensor_node>
     47e:	60 e0       	ldi	r22, 0x00	; 0
     480:	70 e0       	ldi	r23, 0x00	; 0
     482:	8b e2       	ldi	r24, 0x2B	; 43
     484:	91 e0       	ldi	r25, 0x01	; 1
     486:	0e 94 20 0b 	call	0x1640	; 0x1640 <qtm_calibrate_sensor_node>
     48a:	46 e6       	ldi	r20, 0x66	; 102
     48c:	51 e0       	ldi	r21, 0x01	; 1
     48e:	60 e0       	ldi	r22, 0x00	; 0
     490:	86 e1       	ldi	r24, 0x16	; 22
     492:	91 e0       	ldi	r25, 0x01	; 1
     494:	0e 94 57 03 	call	0x6ae	; 0x6ae <qtm_init_sensor_key>
     498:	08 95       	ret

0000049a <touch_process>:
     49a:	80 91 4f 01 	lds	r24, 0x014F	; 0x80014f <time_to_measure_touch_flag>
     49e:	81 30       	cpi	r24, 0x01	; 1
     4a0:	51 f4       	brne	.+20     	; 0x4b6 <touch_process+0x1c>
     4a2:	65 e2       	ldi	r22, 0x25	; 37
     4a4:	72 e0       	ldi	r23, 0x02	; 2
     4a6:	8b e2       	ldi	r24, 0x2B	; 43
     4a8:	91 e0       	ldi	r25, 0x01	; 1
     4aa:	0e 94 08 0a 	call	0x1410	; 0x1410 <qtm_ptc_start_measurement_seq>
     4ae:	81 11       	cpse	r24, r1
     4b0:	02 c0       	rjmp	.+4      	; 0x4b6 <touch_process+0x1c>
     4b2:	10 92 4f 01 	sts	0x014F, r1	; 0x80014f <time_to_measure_touch_flag>
     4b6:	80 91 4e 01 	lds	r24, 0x014E	; 0x80014e <touch_postprocess_request>
     4ba:	81 30       	cpi	r24, 0x01	; 1
     4bc:	09 f5       	brne	.+66     	; 0x500 <touch_process+0x66>
     4be:	10 92 4e 01 	sts	0x014E, r1	; 0x80014e <touch_postprocess_request>
     4c2:	0e 94 10 08 	call	0x1020	; 0x1020 <qtm_acquisition_process>
     4c6:	81 11       	cpse	r24, r1
     4c8:	0a c0       	rjmp	.+20     	; 0x4de <touch_process+0x44>
     4ca:	86 e1       	ldi	r24, 0x16	; 22
     4cc:	91 e0       	ldi	r25, 0x01	; 1
     4ce:	0e 94 76 03 	call	0x6ec	; 0x6ec <qtm_key_sensors_process>
     4d2:	88 23       	and	r24, r24
     4d4:	39 f0       	breq	.+14     	; 0x4e4 <touch_process+0x4a>
     4d6:	82 e0       	ldi	r24, 0x02	; 2
     4d8:	80 93 4c 01 	sts	0x014C, r24	; 0x80014c <module_error_code>
     4dc:	03 c0       	rjmp	.+6      	; 0x4e4 <touch_process+0x4a>
     4de:	81 e0       	ldi	r24, 0x01	; 1
     4e0:	80 93 4c 01 	sts	0x014C, r24	; 0x80014c <module_error_code>
     4e4:	e0 91 16 01 	lds	r30, 0x0116	; 0x800116 <qtlib_key_set1>
     4e8:	f0 91 17 01 	lds	r31, 0x0117	; 0x800117 <qtlib_key_set1+0x1>
     4ec:	80 81       	ld	r24, Z
     4ee:	88 23       	and	r24, r24
     4f0:	24 f4       	brge	.+8      	; 0x4fa <touch_process+0x60>
     4f2:	81 e0       	ldi	r24, 0x01	; 1
     4f4:	80 93 4f 01 	sts	0x014F, r24	; 0x80014f <time_to_measure_touch_flag>
     4f8:	08 95       	ret
     4fa:	81 e0       	ldi	r24, 0x01	; 1
     4fc:	80 93 4d 01 	sts	0x014D, r24	; 0x80014d <measurement_done_touch>
     500:	08 95       	ret

00000502 <touch_timer_handler>:
     502:	81 e0       	ldi	r24, 0x01	; 1
     504:	80 93 4f 01 	sts	0x014F, r24	; 0x80014f <time_to_measure_touch_flag>
     508:	84 e1       	ldi	r24, 0x14	; 20
     50a:	90 e0       	ldi	r25, 0x00	; 0
     50c:	0e 94 4c 03 	call	0x698	; 0x698 <qtm_update_qtlib_timer>
     510:	08 95       	ret

00000512 <mega_touch_timer>:
     512:	80 91 4a 01 	lds	r24, 0x014A	; 0x80014a <touch_time_counter.2360>
     516:	90 91 4b 01 	lds	r25, 0x014B	; 0x80014b <touch_time_counter.2360+0x1>
     51a:	44 97       	sbiw	r24, 0x14	; 20
     51c:	39 f4       	brne	.+14     	; 0x52c <mega_touch_timer+0x1a>
     51e:	10 92 4b 01 	sts	0x014B, r1	; 0x80014b <touch_time_counter.2360+0x1>
     522:	10 92 4a 01 	sts	0x014A, r1	; 0x80014a <touch_time_counter.2360>
     526:	0e 94 81 02 	call	0x502	; 0x502 <touch_timer_handler>
     52a:	08 95       	ret
     52c:	80 91 4a 01 	lds	r24, 0x014A	; 0x80014a <touch_time_counter.2360>
     530:	90 91 4b 01 	lds	r25, 0x014B	; 0x80014b <touch_time_counter.2360+0x1>
     534:	01 96       	adiw	r24, 0x01	; 1
     536:	90 93 4b 01 	sts	0x014B, r25	; 0x80014b <touch_time_counter.2360+0x1>
     53a:	80 93 4a 01 	sts	0x014A, r24	; 0x80014a <touch_time_counter.2360>
     53e:	08 95       	ret

00000540 <get_sensor_state>:
     540:	9c 01       	movw	r18, r24
     542:	22 0f       	add	r18, r18
     544:	33 1f       	adc	r19, r19
     546:	82 0f       	add	r24, r18
     548:	93 1f       	adc	r25, r19
     54a:	88 0f       	add	r24, r24
     54c:	99 1f       	adc	r25, r25
     54e:	e0 91 1a 01 	lds	r30, 0x011A	; 0x80011a <qtlib_key_set1+0x4>
     552:	f0 91 1b 01 	lds	r31, 0x011B	; 0x80011b <qtlib_key_set1+0x5>
     556:	e8 0f       	add	r30, r24
     558:	f9 1f       	adc	r31, r25
     55a:	80 81       	ld	r24, Z
     55c:	08 95       	ret

0000055e <__vector_37>:
Input  : none
Output : none
Notes  : none
============================================================================*/
ISR(PTC_EOC_vect)
{
     55e:	1f 92       	push	r1
     560:	0f 92       	push	r0
     562:	0f b6       	in	r0, 0x3f	; 63
     564:	0f 92       	push	r0
     566:	11 24       	eor	r1, r1
     568:	2f 93       	push	r18
     56a:	3f 93       	push	r19
     56c:	4f 93       	push	r20
     56e:	5f 93       	push	r21
     570:	6f 93       	push	r22
     572:	7f 93       	push	r23
     574:	8f 93       	push	r24
     576:	9f 93       	push	r25
     578:	af 93       	push	r26
     57a:	bf 93       	push	r27
     57c:	ef 93       	push	r30
     57e:	ff 93       	push	r31
	qtm_m328pb_ptc_handler_eoc();
     580:	0e 94 60 0b 	call	0x16c0	; 0x16c0 <qtm_m328pb_ptc_handler_eoc>
}
     584:	ff 91       	pop	r31
     586:	ef 91       	pop	r30
     588:	bf 91       	pop	r27
     58a:	af 91       	pop	r26
     58c:	9f 91       	pop	r25
     58e:	8f 91       	pop	r24
     590:	7f 91       	pop	r23
     592:	6f 91       	pop	r22
     594:	5f 91       	pop	r21
     596:	4f 91       	pop	r20
     598:	3f 91       	pop	r19
     59a:	2f 91       	pop	r18
     59c:	0f 90       	pop	r0
     59e:	0f be       	out	0x3f, r0	; 63
     5a0:	0f 90       	pop	r0
     5a2:	1f 90       	pop	r1
     5a4:	18 95       	reti

000005a6 <system_init>:

void Timer_initialization(void)

{

	Timer_init();
     5a6:	0e 94 d6 02 	call	0x5ac	; 0x5ac <Timer_init>
     5aa:	08 95       	ret

000005ac <Timer_init>:
 */
int8_t Timer_init()
{

	/* Enable TC0 */
	PRR0 &= ~(1 << PRTIM0);
     5ac:	e4 e6       	ldi	r30, 0x64	; 100
     5ae:	f0 e0       	ldi	r31, 0x00	; 0
     5b0:	80 81       	ld	r24, Z
     5b2:	8f 7d       	andi	r24, 0xDF	; 223
     5b4:	80 83       	st	Z, r24

	TCCR0A = (0 << COM0A1) | (0 << COM0A0)   /* Normal port operation, OCA disconnected */
     5b6:	82 e0       	ldi	r24, 0x02	; 2
     5b8:	84 bd       	out	0x24, r24	; 36
	         | (0 << COM0B1) | (0 << COM0B0) /* Normal port operation, OCB disconnected */
	         | (1 << WGM01) | (0 << WGM00);  /* TC8 Mode 2 CTC */

	TCCR0B = 0                                          /* TC8 Mode 2 CTC */
     5ba:	95 e0       	ldi	r25, 0x05	; 5
     5bc:	95 bd       	out	0x25, r25	; 37
	         | (1 << CS02) | (0 << CS01) | (1 << CS00); /* IO clock divided by 1024 */

	TIMSK0 = 0 << OCIE0B   /* Output Compare B Match Interrupt Enable: disabled */
     5be:	80 93 6e 00 	sts	0x006E, r24	; 0x80006e <__TEXT_REGION_LENGTH__+0x7f806e>
	// GTCCR = 0 << TSM /* Timer/Counter Synchronization Mode: disabled */
	//		 | 0 << PSRASY /* Prescaler Reset Timer/Counter2: disabled */
	//		 | 0 << PSRSYNC; /* Prescaler Reset: disabled */

	return 0;
}
     5c2:	80 e0       	ldi	r24, 0x00	; 0
     5c4:	08 95       	ret

000005c6 <check_for_aks_block>:
     5c6:	cf 92       	push	r12
     5c8:	df 92       	push	r13
     5ca:	ff 92       	push	r15
     5cc:	0f 93       	push	r16
     5ce:	1f 93       	push	r17
     5d0:	cf 93       	push	r28
     5d2:	df 93       	push	r29
     5d4:	ec 01       	movw	r28, r24
     5d6:	ae 81       	ldd	r26, Y+6	; 0x06
     5d8:	bf 81       	ldd	r27, Y+7	; 0x07
     5da:	eb 01       	movw	r28, r22
     5dc:	cc 0f       	add	r28, r28
     5de:	dd 1f       	adc	r29, r29
     5e0:	c6 0f       	add	r28, r22
     5e2:	d7 1f       	adc	r29, r23
     5e4:	ca 0f       	add	r28, r26
     5e6:	db 1f       	adc	r29, r27
     5e8:	fa 80       	ldd	r15, Y+2	; 0x02
     5ea:	fc 01       	movw	r30, r24
     5ec:	44 81       	ldd	r20, Z+4	; 0x04
     5ee:	55 81       	ldd	r21, Z+5	; 0x05
     5f0:	e6 e0       	ldi	r30, 0x06	; 6
     5f2:	e6 9f       	mul	r30, r22
     5f4:	90 01       	movw	r18, r0
     5f6:	e7 9f       	mul	r30, r23
     5f8:	30 0d       	add	r19, r0
     5fa:	11 24       	eor	r1, r1
     5fc:	8a 01       	movw	r16, r20
     5fe:	02 0f       	add	r16, r18
     600:	13 1f       	adc	r17, r19
     602:	f8 01       	movw	r30, r16
     604:	22 81       	ldd	r18, Z+2	; 0x02
     606:	33 81       	ldd	r19, Z+3	; 0x03
     608:	f9 01       	movw	r30, r18
     60a:	21 81       	ldd	r18, Z+1	; 0x01
     60c:	32 81       	ldd	r19, Z+2	; 0x02
     60e:	f8 01       	movw	r30, r16
     610:	04 81       	ldd	r16, Z+4	; 0x04
     612:	15 81       	ldd	r17, Z+5	; 0x05
     614:	20 1b       	sub	r18, r16
     616:	31 0b       	sbc	r19, r17
     618:	e8 81       	ld	r30, Y
     61a:	2e 1b       	sub	r18, r30
     61c:	31 09       	sbc	r19, r1
     61e:	ec 01       	movw	r28, r24
     620:	ea 81       	ldd	r30, Y+2	; 0x02
     622:	fb 81       	ldd	r31, Y+3	; 0x03
     624:	00 81       	ld	r16, Z
     626:	11 81       	ldd	r17, Z+1	; 0x01
     628:	fa 01       	movw	r30, r20
     62a:	40 e0       	ldi	r20, 0x00	; 0
     62c:	50 e0       	ldi	r21, 0x00	; 0
     62e:	40 17       	cp	r20, r16
     630:	51 07       	cpc	r21, r17
     632:	39 f1       	breq	.+78     	; 0x682 <check_for_aks_block+0xbc>
     634:	46 17       	cp	r20, r22
     636:	57 07       	cpc	r21, r23
     638:	f9 f0       	breq	.+62     	; 0x678 <check_for_aks_block+0xb2>
     63a:	12 96       	adiw	r26, 0x02	; 2
     63c:	8c 91       	ld	r24, X
     63e:	12 97       	sbiw	r26, 0x02	; 2
     640:	f8 12       	cpse	r15, r24
     642:	1a c0       	rjmp	.+52     	; 0x678 <check_for_aks_block+0xb2>
     644:	80 81       	ld	r24, Z
     646:	85 58       	subi	r24, 0x85	; 133
     648:	82 30       	cpi	r24, 0x02	; 2
     64a:	e8 f0       	brcs	.+58     	; 0x686 <check_for_aks_block+0xc0>
     64c:	c4 80       	ldd	r12, Z+4	; 0x04
     64e:	d5 80       	ldd	r13, Z+5	; 0x05
     650:	82 81       	ldd	r24, Z+2	; 0x02
     652:	93 81       	ldd	r25, Z+3	; 0x03
     654:	ec 01       	movw	r28, r24
     656:	89 81       	ldd	r24, Y+1	; 0x01
     658:	9a 81       	ldd	r25, Y+2	; 0x02
     65a:	c8 16       	cp	r12, r24
     65c:	d9 06       	cpc	r13, r25
     65e:	60 f4       	brcc	.+24     	; 0x678 <check_for_aks_block+0xb2>
     660:	8c 19       	sub	r24, r12
     662:	9d 09       	sbc	r25, r13
     664:	cc 91       	ld	r28, X
     666:	d0 e0       	ldi	r29, 0x00	; 0
     668:	c8 17       	cp	r28, r24
     66a:	d9 07       	cpc	r29, r25
     66c:	28 f4       	brcc	.+10     	; 0x678 <check_for_aks_block+0xb2>
     66e:	8c 1b       	sub	r24, r28
     670:	9d 0b       	sbc	r25, r29
     672:	28 17       	cp	r18, r24
     674:	39 07       	cpc	r19, r25
     676:	38 f0       	brcs	.+14     	; 0x686 <check_for_aks_block+0xc0>
     678:	4f 5f       	subi	r20, 0xFF	; 255
     67a:	5f 4f       	sbci	r21, 0xFF	; 255
     67c:	13 96       	adiw	r26, 0x03	; 3
     67e:	36 96       	adiw	r30, 0x06	; 6
     680:	d6 cf       	rjmp	.-84     	; 0x62e <check_for_aks_block+0x68>
     682:	80 e0       	ldi	r24, 0x00	; 0
     684:	01 c0       	rjmp	.+2      	; 0x688 <check_for_aks_block+0xc2>
     686:	81 e0       	ldi	r24, 0x01	; 1
     688:	df 91       	pop	r29
     68a:	cf 91       	pop	r28
     68c:	1f 91       	pop	r17
     68e:	0f 91       	pop	r16
     690:	ff 90       	pop	r15
     692:	df 90       	pop	r13
     694:	cf 90       	pop	r12
     696:	08 95       	ret

00000698 <qtm_update_qtlib_timer>:
     698:	20 91 50 01 	lds	r18, 0x0150	; 0x800150 <qtm_local_ms_timecount>
     69c:	30 91 51 01 	lds	r19, 0x0151	; 0x800151 <qtm_local_ms_timecount+0x1>
     6a0:	82 0f       	add	r24, r18
     6a2:	93 1f       	adc	r25, r19
     6a4:	90 93 51 01 	sts	0x0151, r25	; 0x800151 <qtm_local_ms_timecount+0x1>
     6a8:	80 93 50 01 	sts	0x0150, r24	; 0x800150 <qtm_local_ms_timecount>
     6ac:	08 95       	ret

000006ae <qtm_init_sensor_key>:
     6ae:	00 97       	sbiw	r24, 0x00	; 0
     6b0:	d9 f0       	breq	.+54     	; 0x6e8 <qtm_init_sensor_key+0x3a>
     6b2:	41 15       	cp	r20, r1
     6b4:	51 05       	cpc	r21, r1
     6b6:	c1 f0       	breq	.+48     	; 0x6e8 <qtm_init_sensor_key+0x3a>
     6b8:	26 e0       	ldi	r18, 0x06	; 6
     6ba:	62 9f       	mul	r22, r18
     6bc:	b0 01       	movw	r22, r0
     6be:	11 24       	eor	r1, r1
     6c0:	dc 01       	movw	r26, r24
     6c2:	14 96       	adiw	r26, 0x04	; 4
     6c4:	ed 91       	ld	r30, X+
     6c6:	fc 91       	ld	r31, X
     6c8:	15 97       	sbiw	r26, 0x05	; 5
     6ca:	e6 0f       	add	r30, r22
     6cc:	f7 1f       	adc	r31, r23
     6ce:	21 e0       	ldi	r18, 0x01	; 1
     6d0:	20 83       	st	Z, r18
     6d2:	14 96       	adiw	r26, 0x04	; 4
     6d4:	8d 91       	ld	r24, X+
     6d6:	9c 91       	ld	r25, X
     6d8:	15 97       	sbiw	r26, 0x05	; 5
     6da:	fc 01       	movw	r30, r24
     6dc:	e6 0f       	add	r30, r22
     6de:	f7 1f       	adc	r31, r23
     6e0:	53 83       	std	Z+3, r21	; 0x03
     6e2:	42 83       	std	Z+2, r20	; 0x02
     6e4:	80 e0       	ldi	r24, 0x00	; 0
     6e6:	08 95       	ret
     6e8:	8b e0       	ldi	r24, 0x0B	; 11
     6ea:	08 95       	ret

000006ec <qtm_key_sensors_process>:
     6ec:	2f 92       	push	r2
     6ee:	3f 92       	push	r3
     6f0:	4f 92       	push	r4
     6f2:	5f 92       	push	r5
     6f4:	6f 92       	push	r6
     6f6:	7f 92       	push	r7
     6f8:	8f 92       	push	r8
     6fa:	9f 92       	push	r9
     6fc:	af 92       	push	r10
     6fe:	bf 92       	push	r11
     700:	cf 92       	push	r12
     702:	df 92       	push	r13
     704:	ef 92       	push	r14
     706:	ff 92       	push	r15
     708:	0f 93       	push	r16
     70a:	1f 93       	push	r17
     70c:	cf 93       	push	r28
     70e:	df 93       	push	r29
     710:	00 97       	sbiw	r24, 0x00	; 0
     712:	09 f4       	brne	.+2      	; 0x716 <qtm_key_sensors_process+0x2a>
     714:	7d c3       	rjmp	.+1786   	; 0xe10 <__stack+0x511>
     716:	ec 01       	movw	r28, r24
     718:	a1 2c       	mov	r10, r1
     71a:	b1 2c       	mov	r11, r1
     71c:	81 2c       	mov	r8, r1
     71e:	91 2c       	mov	r9, r1
     720:	21 2c       	mov	r2, r1
     722:	d1 2c       	mov	r13, r1
     724:	33 e0       	ldi	r19, 0x03	; 3
     726:	c3 2e       	mov	r12, r19
     728:	45 e8       	ldi	r20, 0x85	; 133
     72a:	64 2e       	mov	r6, r20
     72c:	56 e8       	ldi	r21, 0x86	; 134
     72e:	75 2e       	mov	r7, r21
     730:	67 e0       	ldi	r22, 0x07	; 7
     732:	36 2e       	mov	r3, r22
     734:	72 e0       	ldi	r23, 0x02	; 2
     736:	47 2e       	mov	r4, r23
     738:	e8 e0       	ldi	r30, 0x08	; 8
     73a:	5e 2e       	mov	r5, r30
     73c:	ea 81       	ldd	r30, Y+2	; 0x02
     73e:	fb 81       	ldd	r31, Y+3	; 0x03
     740:	80 81       	ld	r24, Z
     742:	91 81       	ldd	r25, Z+1	; 0x01
     744:	88 16       	cp	r8, r24
     746:	99 06       	cpc	r9, r25
     748:	08 f0       	brcs	.+2      	; 0x74c <qtm_key_sensors_process+0x60>
     74a:	a5 c1       	rjmp	.+842    	; 0xa96 <__stack+0x197>
     74c:	75 01       	movw	r14, r10
     74e:	ee 0c       	add	r14, r14
     750:	ff 1c       	adc	r15, r15
     752:	0c 81       	ldd	r16, Y+4	; 0x04
     754:	1d 81       	ldd	r17, Y+5	; 0x05
     756:	0e 0d       	add	r16, r14
     758:	1f 1d       	adc	r17, r15
     75a:	d8 01       	movw	r26, r16
     75c:	8c 91       	ld	r24, X
     75e:	84 30       	cpi	r24, 0x04	; 4
     760:	09 f4       	brne	.+2      	; 0x764 <qtm_key_sensors_process+0x78>
     762:	a2 c0       	rjmp	.+324    	; 0x8a8 <__DATA_REGION_LENGTH__+0xa8>
     764:	38 f4       	brcc	.+14     	; 0x774 <qtm_key_sensors_process+0x88>
     766:	82 30       	cpi	r24, 0x02	; 2
     768:	01 f1       	breq	.+64     	; 0x7aa <qtm_key_sensors_process+0xbe>
     76a:	08 f0       	brcs	.+2      	; 0x76e <qtm_key_sensors_process+0x82>
     76c:	49 c0       	rjmp	.+146    	; 0x800 <__DATA_REGION_LENGTH__>
     76e:	81 30       	cpi	r24, 0x01	; 1
     770:	59 f0       	breq	.+22     	; 0x788 <qtm_key_sensors_process+0x9c>
     772:	8a c1       	rjmp	.+788    	; 0xa88 <__stack+0x189>
     774:	85 38       	cpi	r24, 0x85	; 133
     776:	09 f4       	brne	.+2      	; 0x77a <qtm_key_sensors_process+0x8e>
     778:	c4 c0       	rjmp	.+392    	; 0x902 <__stack+0x3>
     77a:	86 38       	cpi	r24, 0x86	; 134
     77c:	09 f4       	brne	.+2      	; 0x780 <qtm_key_sensors_process+0x94>
     77e:	f8 c0       	rjmp	.+496    	; 0x970 <__stack+0x71>
     780:	87 30       	cpi	r24, 0x07	; 7
     782:	09 f0       	breq	.+2      	; 0x786 <qtm_key_sensors_process+0x9a>
     784:	81 c1       	rjmp	.+770    	; 0xa88 <__stack+0x189>
     786:	39 c1       	rjmp	.+626    	; 0x9fa <__stack+0xfb>
     788:	d8 01       	movw	r26, r16
     78a:	12 96       	adiw	r26, 0x02	; 2
     78c:	ed 91       	ld	r30, X+
     78e:	fc 91       	ld	r31, X
     790:	13 97       	sbiw	r26, 0x03	; 3
     792:	80 81       	ld	r24, Z
     794:	8e 71       	andi	r24, 0x1E	; 30
     796:	09 f0       	breq	.+2      	; 0x79a <qtm_key_sensors_process+0xae>
     798:	69 c1       	rjmp	.+722    	; 0xa6c <__stack+0x16d>
     79a:	4c 92       	st	X, r4
     79c:	8c 81       	ldd	r24, Y+4	; 0x04
     79e:	9d 81       	ldd	r25, Y+5	; 0x05
     7a0:	fc 01       	movw	r30, r24
     7a2:	ee 0d       	add	r30, r14
     7a4:	ff 1d       	adc	r31, r15
     7a6:	51 82       	std	Z+1, r5	; 0x01
     7a8:	61 c1       	rjmp	.+706    	; 0xa6c <__stack+0x16d>
     7aa:	f8 01       	movw	r30, r16
     7ac:	21 81       	ldd	r18, Z+1	; 0x01
     7ae:	22 23       	and	r18, r18
     7b0:	29 f1       	breq	.+74     	; 0x7fc <qtm_key_sensors_process+0x110>
     7b2:	02 80       	ldd	r0, Z+2	; 0x02
     7b4:	f3 81       	ldd	r31, Z+3	; 0x03
     7b6:	e0 2d       	mov	r30, r0
     7b8:	25 30       	cpi	r18, 0x05	; 5
     7ba:	20 f0       	brcs	.+8      	; 0x7c4 <qtm_key_sensors_process+0xd8>
     7bc:	81 81       	ldd	r24, Z+1	; 0x01
     7be:	92 81       	ldd	r25, Z+2	; 0x02
     7c0:	d8 01       	movw	r26, r16
     7c2:	0e c0       	rjmp	.+28     	; 0x7e0 <qtm_key_sensors_process+0xf4>
     7c4:	d8 01       	movw	r26, r16
     7c6:	14 96       	adiw	r26, 0x04	; 4
     7c8:	8d 91       	ld	r24, X+
     7ca:	9c 91       	ld	r25, X
     7cc:	15 97       	sbiw	r26, 0x05	; 5
     7ce:	41 81       	ldd	r20, Z+1	; 0x01
     7d0:	52 81       	ldd	r21, Z+2	; 0x02
     7d2:	84 17       	cp	r24, r20
     7d4:	95 07       	cpc	r25, r21
     7d6:	69 f0       	breq	.+26     	; 0x7f2 <qtm_key_sensors_process+0x106>
     7d8:	48 17       	cp	r20, r24
     7da:	59 07       	cpc	r21, r25
     7dc:	30 f4       	brcc	.+12     	; 0x7ea <qtm_key_sensors_process+0xfe>
     7de:	01 97       	sbiw	r24, 0x01	; 1
     7e0:	15 96       	adiw	r26, 0x05	; 5
     7e2:	9c 93       	st	X, r25
     7e4:	8e 93       	st	-X, r24
     7e6:	14 97       	sbiw	r26, 0x04	; 4
     7e8:	04 c0       	rjmp	.+8      	; 0x7f2 <qtm_key_sensors_process+0x106>
     7ea:	01 96       	adiw	r24, 0x01	; 1
     7ec:	f8 01       	movw	r30, r16
     7ee:	95 83       	std	Z+5, r25	; 0x05
     7f0:	84 83       	std	Z+4, r24	; 0x04
     7f2:	21 50       	subi	r18, 0x01	; 1
     7f4:	d8 01       	movw	r26, r16
     7f6:	11 96       	adiw	r26, 0x01	; 1
     7f8:	2c 93       	st	X, r18
     7fa:	38 c1       	rjmp	.+624    	; 0xa6c <__stack+0x16d>
     7fc:	f8 01       	movw	r30, r16
     7fe:	30 c1       	rjmp	.+608    	; 0xa60 <__stack+0x161>
     800:	d8 01       	movw	r26, r16
     802:	14 96       	adiw	r26, 0x04	; 4
     804:	2d 91       	ld	r18, X+
     806:	3c 91       	ld	r19, X
     808:	15 97       	sbiw	r26, 0x05	; 5
     80a:	12 96       	adiw	r26, 0x02	; 2
     80c:	8d 91       	ld	r24, X+
     80e:	9c 91       	ld	r25, X
     810:	13 97       	sbiw	r26, 0x03	; 3
     812:	dc 01       	movw	r26, r24
     814:	11 96       	adiw	r26, 0x01	; 1
     816:	4d 91       	ld	r20, X+
     818:	5c 91       	ld	r21, X
     81a:	12 97       	sbiw	r26, 0x02	; 2
     81c:	24 17       	cp	r18, r20
     81e:	35 07       	cpc	r19, r21
     820:	09 f4       	brne	.+2      	; 0x824 <__DATA_REGION_LENGTH__+0x24>
     822:	32 c1       	rjmp	.+612    	; 0xa88 <__stack+0x189>
     824:	8e 81       	ldd	r24, Y+6	; 0x06
     826:	9f 81       	ldd	r25, Y+7	; 0x07
     828:	42 17       	cp	r20, r18
     82a:	53 07       	cpc	r21, r19
     82c:	e0 f4       	brcc	.+56     	; 0x866 <__DATA_REGION_LENGTH__+0x66>
     82e:	24 1b       	sub	r18, r20
     830:	35 0b       	sbc	r19, r21
     832:	dc 01       	movw	r26, r24
     834:	aa 0d       	add	r26, r10
     836:	bb 1d       	adc	r27, r11
     838:	8c 91       	ld	r24, X
     83a:	90 e0       	ldi	r25, 0x00	; 0
     83c:	05 80       	ldd	r0, Z+5	; 0x05
     83e:	02 c0       	rjmp	.+4      	; 0x844 <__DATA_REGION_LENGTH__+0x44>
     840:	95 95       	asr	r25
     842:	87 95       	ror	r24
     844:	0a 94       	dec	r0
     846:	e2 f7       	brpl	.-8      	; 0x840 <__DATA_REGION_LENGTH__+0x40>
     848:	99 27       	eor	r25, r25
     84a:	28 17       	cp	r18, r24
     84c:	39 07       	cpc	r19, r25
     84e:	08 f4       	brcc	.+2      	; 0x852 <__DATA_REGION_LENGTH__+0x52>
     850:	1b c1       	rjmp	.+566    	; 0xa88 <__stack+0x189>
     852:	84 81       	ldd	r24, Z+4	; 0x04
     854:	88 23       	and	r24, r24
     856:	09 f4       	brne	.+2      	; 0x85a <__DATA_REGION_LENGTH__+0x5a>
     858:	17 c1       	rjmp	.+558    	; 0xa88 <__stack+0x189>
     85a:	f8 01       	movw	r30, r16
     85c:	30 82       	st	Z, r3
     85e:	ea 81       	ldd	r30, Y+2	; 0x02
     860:	fb 81       	ldd	r31, Y+3	; 0x03
     862:	24 81       	ldd	r18, Z+4	; 0x04
     864:	1a c0       	rjmp	.+52     	; 0x89a <__DATA_REGION_LENGTH__+0x9a>
     866:	fc 01       	movw	r30, r24
     868:	ea 0d       	add	r30, r10
     86a:	fb 1d       	adc	r31, r11
     86c:	42 1b       	sub	r20, r18
     86e:	53 0b       	sbc	r21, r19
     870:	80 81       	ld	r24, Z
     872:	90 e0       	ldi	r25, 0x00	; 0
     874:	48 17       	cp	r20, r24
     876:	59 07       	cpc	r21, r25
     878:	08 f4       	brcc	.+2      	; 0x87c <__DATA_REGION_LENGTH__+0x7c>
     87a:	06 c1       	rjmp	.+524    	; 0xa88 <__stack+0x189>
     87c:	82 81       	ldd	r24, Z+2	; 0x02
     87e:	88 23       	and	r24, r24
     880:	31 f0       	breq	.+12     	; 0x88e <__DATA_REGION_LENGTH__+0x8e>
     882:	b4 01       	movw	r22, r8
     884:	ce 01       	movw	r24, r28
     886:	0e 94 e3 02 	call	0x5c6	; 0x5c6 <check_for_aks_block>
     88a:	81 11       	cpse	r24, r1
     88c:	fd c0       	rjmp	.+506    	; 0xa88 <__stack+0x189>
     88e:	e4 e0       	ldi	r30, 0x04	; 4
     890:	d8 01       	movw	r26, r16
     892:	ec 93       	st	X, r30
     894:	ea 81       	ldd	r30, Y+2	; 0x02
     896:	fb 81       	ldd	r31, Y+3	; 0x03
     898:	22 81       	ldd	r18, Z+2	; 0x02
     89a:	8c 81       	ldd	r24, Y+4	; 0x04
     89c:	9d 81       	ldd	r25, Y+5	; 0x05
     89e:	fc 01       	movw	r30, r24
     8a0:	ee 0d       	add	r30, r14
     8a2:	ff 1d       	adc	r31, r15
     8a4:	21 83       	std	Z+1, r18	; 0x01
     8a6:	e2 c0       	rjmp	.+452    	; 0xa6c <__stack+0x16d>
     8a8:	d8 01       	movw	r26, r16
     8aa:	14 96       	adiw	r26, 0x04	; 4
     8ac:	2d 91       	ld	r18, X+
     8ae:	3c 91       	ld	r19, X
     8b0:	15 97       	sbiw	r26, 0x05	; 5
     8b2:	12 96       	adiw	r26, 0x02	; 2
     8b4:	ed 91       	ld	r30, X+
     8b6:	fc 91       	ld	r31, X
     8b8:	13 97       	sbiw	r26, 0x03	; 3
     8ba:	81 81       	ldd	r24, Z+1	; 0x01
     8bc:	92 81       	ldd	r25, Z+2	; 0x02
     8be:	82 17       	cp	r24, r18
     8c0:	93 07       	cpc	r25, r19
     8c2:	10 f4       	brcc	.+4      	; 0x8c8 <__DATA_REGION_LENGTH__+0xc8>
     8c4:	cc 92       	st	X, r12
     8c6:	d7 c0       	rjmp	.+430    	; 0xa76 <__stack+0x177>
     8c8:	ee 81       	ldd	r30, Y+6	; 0x06
     8ca:	ff 81       	ldd	r31, Y+7	; 0x07
     8cc:	ea 0d       	add	r30, r10
     8ce:	fb 1d       	adc	r31, r11
     8d0:	82 1b       	sub	r24, r18
     8d2:	93 0b       	sbc	r25, r19
     8d4:	20 81       	ld	r18, Z
     8d6:	30 e0       	ldi	r19, 0x00	; 0
     8d8:	28 17       	cp	r18, r24
     8da:	39 07       	cpc	r19, r25
     8dc:	08 f0       	brcs	.+2      	; 0x8e0 <__DATA_REGION_LENGTH__+0xe0>
     8de:	c9 c0       	rjmp	.+402    	; 0xa72 <__stack+0x173>
     8e0:	82 81       	ldd	r24, Z+2	; 0x02
     8e2:	88 23       	and	r24, r24
     8e4:	31 f0       	breq	.+12     	; 0x8f2 <__DATA_REGION_LENGTH__+0xf2>
     8e6:	b4 01       	movw	r22, r8
     8e8:	ce 01       	movw	r24, r28
     8ea:	0e 94 e3 02 	call	0x5c6	; 0x5c6 <check_for_aks_block>
     8ee:	81 11       	cpse	r24, r1
     8f0:	cb c0       	rjmp	.+406    	; 0xa88 <__stack+0x189>
     8f2:	f8 01       	movw	r30, r16
     8f4:	81 81       	ldd	r24, Z+1	; 0x01
     8f6:	88 23       	and	r24, r24
     8f8:	09 f4       	brne	.+2      	; 0x8fc <__DATA_REGION_LENGTH__+0xfc>
     8fa:	68 c0       	rjmp	.+208    	; 0x9cc <__stack+0xcd>
     8fc:	81 50       	subi	r24, 0x01	; 1
     8fe:	81 83       	std	Z+1, r24	; 0x01
     900:	b5 c0       	rjmp	.+362    	; 0xa6c <__stack+0x16d>
     902:	a8 81       	ld	r26, Y
     904:	b9 81       	ldd	r27, Y+1	; 0x01
     906:	80 85       	ldd	r24, Z+8	; 0x08
     908:	13 96       	adiw	r26, 0x03	; 3
     90a:	8c 93       	st	X, r24
     90c:	ec 81       	ldd	r30, Y+4	; 0x04
     90e:	fd 81       	ldd	r31, Y+5	; 0x05
     910:	ee 0d       	add	r30, r14
     912:	ff 1d       	adc	r31, r15
     914:	44 81       	ldd	r20, Z+4	; 0x04
     916:	55 81       	ldd	r21, Z+5	; 0x05
     918:	a2 81       	ldd	r26, Z+2	; 0x02
     91a:	b3 81       	ldd	r27, Z+3	; 0x03
     91c:	11 96       	adiw	r26, 0x01	; 1
     91e:	8d 91       	ld	r24, X+
     920:	9c 91       	ld	r25, X
     922:	12 97       	sbiw	r26, 0x02	; 2
     924:	84 17       	cp	r24, r20
     926:	95 07       	cpc	r25, r21
     928:	c0 f0       	brcs	.+48     	; 0x95a <__stack+0x5b>
     92a:	ae 81       	ldd	r26, Y+6	; 0x06
     92c:	bf 81       	ldd	r27, Y+7	; 0x07
     92e:	aa 0d       	add	r26, r10
     930:	bb 1d       	adc	r27, r11
     932:	6c 91       	ld	r22, X
     934:	26 2f       	mov	r18, r22
     936:	30 e0       	ldi	r19, 0x00	; 0
     938:	11 96       	adiw	r26, 0x01	; 1
     93a:	7c 91       	ld	r23, X
     93c:	7f 5f       	subi	r23, 0xFF	; 255
     93e:	02 c0       	rjmp	.+4      	; 0x944 <__stack+0x45>
     940:	35 95       	asr	r19
     942:	27 95       	ror	r18
     944:	7a 95       	dec	r23
     946:	e2 f7       	brpl	.-8      	; 0x940 <__stack+0x41>
     948:	84 1b       	sub	r24, r20
     94a:	95 0b       	sbc	r25, r21
     94c:	62 1b       	sub	r22, r18
     94e:	26 2f       	mov	r18, r22
     950:	30 e0       	ldi	r19, 0x00	; 0
     952:	28 17       	cp	r18, r24
     954:	39 07       	cpc	r19, r25
     956:	08 f4       	brcc	.+2      	; 0x95a <__stack+0x5b>
     958:	95 c0       	rjmp	.+298    	; 0xa84 <__stack+0x185>
     95a:	70 82       	st	Z, r7
     95c:	ea 81       	ldd	r30, Y+2	; 0x02
     95e:	fb 81       	ldd	r31, Y+3	; 0x03
     960:	22 81       	ldd	r18, Z+2	; 0x02
     962:	8c 81       	ldd	r24, Y+4	; 0x04
     964:	9d 81       	ldd	r25, Y+5	; 0x05
     966:	fc 01       	movw	r30, r24
     968:	ee 0d       	add	r30, r14
     96a:	ff 1d       	adc	r31, r15
     96c:	21 83       	std	Z+1, r18	; 0x01
     96e:	42 c0       	rjmp	.+132    	; 0x9f4 <__stack+0xf5>
     970:	d8 01       	movw	r26, r16
     972:	14 96       	adiw	r26, 0x04	; 4
     974:	6d 91       	ld	r22, X+
     976:	7c 91       	ld	r23, X
     978:	15 97       	sbiw	r26, 0x05	; 5
     97a:	12 96       	adiw	r26, 0x02	; 2
     97c:	ed 91       	ld	r30, X+
     97e:	fc 91       	ld	r31, X
     980:	13 97       	sbiw	r26, 0x03	; 3
     982:	21 81       	ldd	r18, Z+1	; 0x01
     984:	32 81       	ldd	r19, Z+2	; 0x02
     986:	26 17       	cp	r18, r22
     988:	37 07       	cpc	r19, r23
     98a:	58 f4       	brcc	.+22     	; 0x9a2 <__stack+0xa3>
     98c:	11 96       	adiw	r26, 0x01	; 1
     98e:	8c 91       	ld	r24, X
     990:	11 97       	sbiw	r26, 0x01	; 1
     992:	81 11       	cpse	r24, r1
     994:	02 c0       	rjmp	.+4      	; 0x99a <__stack+0x9b>
     996:	cc 92       	st	X, r12
     998:	75 c0       	rjmp	.+234    	; 0xa84 <__stack+0x185>
     99a:	81 50       	subi	r24, 0x01	; 1
     99c:	f8 01       	movw	r30, r16
     99e:	81 83       	std	Z+1, r24	; 0x01
     9a0:	71 c0       	rjmp	.+226    	; 0xa84 <__stack+0x185>
     9a2:	ee 81       	ldd	r30, Y+6	; 0x06
     9a4:	ff 81       	ldd	r31, Y+7	; 0x07
     9a6:	ea 0d       	add	r30, r10
     9a8:	fb 1d       	adc	r31, r11
     9aa:	80 81       	ld	r24, Z
     9ac:	48 2f       	mov	r20, r24
     9ae:	50 e0       	ldi	r21, 0x00	; 0
     9b0:	91 81       	ldd	r25, Z+1	; 0x01
     9b2:	9f 5f       	subi	r25, 0xFF	; 255
     9b4:	02 c0       	rjmp	.+4      	; 0x9ba <__stack+0xbb>
     9b6:	55 95       	asr	r21
     9b8:	47 95       	ror	r20
     9ba:	9a 95       	dec	r25
     9bc:	e2 f7       	brpl	.-8      	; 0x9b6 <__stack+0xb7>
     9be:	26 1b       	sub	r18, r22
     9c0:	37 0b       	sbc	r19, r23
     9c2:	84 1b       	sub	r24, r20
     9c4:	90 e0       	ldi	r25, 0x00	; 0
     9c6:	82 17       	cp	r24, r18
     9c8:	93 07       	cpc	r25, r19
     9ca:	60 f4       	brcc	.+24     	; 0x9e4 <__stack+0xe5>
     9cc:	d8 01       	movw	r26, r16
     9ce:	6c 92       	st	X, r6
     9d0:	ea 81       	ldd	r30, Y+2	; 0x02
     9d2:	fb 81       	ldd	r31, Y+3	; 0x03
     9d4:	23 81       	ldd	r18, Z+3	; 0x03
     9d6:	8c 81       	ldd	r24, Y+4	; 0x04
     9d8:	9d 81       	ldd	r25, Y+5	; 0x05
     9da:	fc 01       	movw	r30, r24
     9dc:	ee 0d       	add	r30, r14
     9de:	ff 1d       	adc	r31, r15
     9e0:	21 83       	std	Z+1, r18	; 0x01
     9e2:	50 c0       	rjmp	.+160    	; 0xa84 <__stack+0x185>
     9e4:	f8 01       	movw	r30, r16
     9e6:	81 81       	ldd	r24, Z+1	; 0x01
     9e8:	81 11       	cpse	r24, r1
     9ea:	02 c0       	rjmp	.+4      	; 0x9f0 <__stack+0xf1>
     9ec:	c0 82       	st	Z, r12
     9ee:	4a c0       	rjmp	.+148    	; 0xa84 <__stack+0x185>
     9f0:	81 50       	subi	r24, 0x01	; 1
     9f2:	81 83       	std	Z+1, r24	; 0x01
     9f4:	22 24       	eor	r2, r2
     9f6:	23 94       	inc	r2
     9f8:	39 c0       	rjmp	.+114    	; 0xa6c <__stack+0x16d>
     9fa:	d8 01       	movw	r26, r16
     9fc:	14 96       	adiw	r26, 0x04	; 4
     9fe:	2d 91       	ld	r18, X+
     a00:	3c 91       	ld	r19, X
     a02:	15 97       	sbiw	r26, 0x05	; 5
     a04:	12 96       	adiw	r26, 0x02	; 2
     a06:	8d 91       	ld	r24, X+
     a08:	9c 91       	ld	r25, X
     a0a:	13 97       	sbiw	r26, 0x03	; 3
     a0c:	dc 01       	movw	r26, r24
     a0e:	11 96       	adiw	r26, 0x01	; 1
     a10:	8d 91       	ld	r24, X+
     a12:	9c 91       	ld	r25, X
     a14:	12 97       	sbiw	r26, 0x02	; 2
     a16:	82 17       	cp	r24, r18
     a18:	93 07       	cpc	r25, r19
     a1a:	58 f5       	brcc	.+86     	; 0xa72 <__stack+0x173>
     a1c:	28 1b       	sub	r18, r24
     a1e:	39 0b       	sbc	r19, r25
     a20:	ae 81       	ldd	r26, Y+6	; 0x06
     a22:	bf 81       	ldd	r27, Y+7	; 0x07
     a24:	aa 0d       	add	r26, r10
     a26:	bb 1d       	adc	r27, r11
     a28:	8c 91       	ld	r24, X
     a2a:	90 e0       	ldi	r25, 0x00	; 0
     a2c:	05 80       	ldd	r0, Z+5	; 0x05
     a2e:	02 c0       	rjmp	.+4      	; 0xa34 <__stack+0x135>
     a30:	95 95       	asr	r25
     a32:	87 95       	ror	r24
     a34:	0a 94       	dec	r0
     a36:	e2 f7       	brpl	.-8      	; 0xa30 <__stack+0x131>
     a38:	99 27       	eor	r25, r25
     a3a:	28 17       	cp	r18, r24
     a3c:	39 07       	cpc	r19, r25
     a3e:	c8 f0       	brcs	.+50     	; 0xa72 <__stack+0x173>
     a40:	d8 01       	movw	r26, r16
     a42:	11 96       	adiw	r26, 0x01	; 1
     a44:	8c 91       	ld	r24, X
     a46:	11 97       	sbiw	r26, 0x01	; 1
     a48:	81 11       	cpse	r24, r1
     a4a:	0c c0       	rjmp	.+24     	; 0xa64 <__stack+0x165>
     a4c:	e1 e0       	ldi	r30, 0x01	; 1
     a4e:	ec 93       	st	X, r30
     a50:	8c 81       	ldd	r24, Y+4	; 0x04
     a52:	9d 81       	ldd	r25, Y+5	; 0x05
     a54:	fc 01       	movw	r30, r24
     a56:	ee 0d       	add	r30, r14
     a58:	ff 1d       	adc	r31, r15
     a5a:	02 80       	ldd	r0, Z+2	; 0x02
     a5c:	f3 81       	ldd	r31, Z+3	; 0x03
     a5e:	e0 2d       	mov	r30, r0
     a60:	c0 82       	st	Z, r12
     a62:	12 c0       	rjmp	.+36     	; 0xa88 <__stack+0x189>
     a64:	81 50       	subi	r24, 0x01	; 1
     a66:	d8 01       	movw	r26, r16
     a68:	11 96       	adiw	r26, 0x01	; 1
     a6a:	8c 93       	st	X, r24
     a6c:	dd 24       	eor	r13, r13
     a6e:	d3 94       	inc	r13
     a70:	0b c0       	rjmp	.+22     	; 0xa88 <__stack+0x189>
     a72:	f8 01       	movw	r30, r16
     a74:	c0 82       	st	Z, r12
     a76:	8c 81       	ldd	r24, Y+4	; 0x04
     a78:	9d 81       	ldd	r25, Y+5	; 0x05
     a7a:	fc 01       	movw	r30, r24
     a7c:	ee 0d       	add	r30, r14
     a7e:	ff 1d       	adc	r31, r15
     a80:	11 82       	std	Z+1, r1	; 0x01
     a82:	02 c0       	rjmp	.+4      	; 0xa88 <__stack+0x189>
     a84:	22 24       	eor	r2, r2
     a86:	23 94       	inc	r2
     a88:	ff ef       	ldi	r31, 0xFF	; 255
     a8a:	8f 1a       	sub	r8, r31
     a8c:	9f 0a       	sbc	r9, r31
     a8e:	83 e0       	ldi	r24, 0x03	; 3
     a90:	a8 0e       	add	r10, r24
     a92:	b1 1c       	adc	r11, r1
     a94:	53 ce       	rjmp	.-858    	; 0x73c <qtm_key_sensors_process+0x50>
     a96:	e8 81       	ld	r30, Y
     a98:	f9 81       	ldd	r31, Y+1	; 0x01
     a9a:	80 81       	ld	r24, Z
     a9c:	87 ff       	sbrs	r24, 7
     a9e:	23 c0       	rjmp	.+70     	; 0xae6 <__stack+0x1e7>
     aa0:	40 e0       	ldi	r20, 0x00	; 0
     aa2:	50 e0       	ldi	r21, 0x00	; 0
     aa4:	20 e0       	ldi	r18, 0x00	; 0
     aa6:	30 e0       	ldi	r19, 0x00	; 0
     aa8:	ea 81       	ldd	r30, Y+2	; 0x02
     aaa:	fb 81       	ldd	r31, Y+3	; 0x03
     aac:	80 81       	ld	r24, Z
     aae:	91 81       	ldd	r25, Z+1	; 0x01
     ab0:	28 17       	cp	r18, r24
     ab2:	39 07       	cpc	r19, r25
     ab4:	98 f4       	brcc	.+38     	; 0xadc <__stack+0x1dd>
     ab6:	ec 81       	ldd	r30, Y+4	; 0x04
     ab8:	fd 81       	ldd	r31, Y+5	; 0x05
     aba:	e4 0f       	add	r30, r20
     abc:	f5 1f       	adc	r31, r21
     abe:	a2 81       	ldd	r26, Z+2	; 0x02
     ac0:	b3 81       	ldd	r27, Z+3	; 0x03
     ac2:	8c 91       	ld	r24, X
     ac4:	80 fd       	sbrc	r24, 0
     ac6:	05 c0       	rjmp	.+10     	; 0xad2 <__stack+0x1d3>
     ac8:	90 81       	ld	r25, Z
     aca:	97 7f       	andi	r25, 0xF7	; 247
     acc:	11 f0       	breq	.+4      	; 0xad2 <__stack+0x1d3>
     ace:	81 60       	ori	r24, 0x01	; 1
     ad0:	8c 93       	st	X, r24
     ad2:	2f 5f       	subi	r18, 0xFF	; 255
     ad4:	3f 4f       	sbci	r19, 0xFF	; 255
     ad6:	4a 5f       	subi	r20, 0xFA	; 250
     ad8:	5f 4f       	sbci	r21, 0xFF	; 255
     ada:	e6 cf       	rjmp	.-52     	; 0xaa8 <__stack+0x1a9>
     adc:	e8 81       	ld	r30, Y
     ade:	f9 81       	ldd	r31, Y+1	; 0x01
     ae0:	80 81       	ld	r24, Z
     ae2:	8f 77       	andi	r24, 0x7F	; 127
     ae4:	80 83       	st	Z, r24
     ae6:	d1 10       	cpse	r13, r1
     ae8:	07 c0       	rjmp	.+14     	; 0xaf8 <__stack+0x1f9>
     aea:	e8 81       	ld	r30, Y
     aec:	f9 81       	ldd	r31, Y+1	; 0x01
     aee:	21 10       	cpse	r2, r1
     af0:	6f c0       	rjmp	.+222    	; 0xbd0 <__stack+0x2d1>
     af2:	80 81       	ld	r24, Z
     af4:	8e 7f       	andi	r24, 0xFE	; 254
     af6:	6e c0       	rjmp	.+220    	; 0xbd4 <__stack+0x2d5>
     af8:	ea 81       	ldd	r30, Y+2	; 0x02
     afa:	fb 81       	ldd	r31, Y+3	; 0x03
     afc:	81 85       	ldd	r24, Z+9	; 0x09
     afe:	88 23       	and	r24, r24
     b00:	a1 f3       	breq	.-24     	; 0xaea <__stack+0x1eb>
     b02:	e8 81       	ld	r30, Y
     b04:	f9 81       	ldd	r31, Y+1	; 0x01
     b06:	80 81       	ld	r24, Z
     b08:	80 68       	ori	r24, 0x80	; 128
     b0a:	80 83       	st	Z, r24
     b0c:	ea 81       	ldd	r30, Y+2	; 0x02
     b0e:	fb 81       	ldd	r31, Y+3	; 0x03
     b10:	81 85       	ldd	r24, Z+9	; 0x09
     b12:	81 30       	cpi	r24, 0x01	; 1
     b14:	51 f7       	brne	.-44     	; 0xaea <__stack+0x1eb>
     b16:	40 e0       	ldi	r20, 0x00	; 0
     b18:	50 e0       	ldi	r21, 0x00	; 0
     b1a:	20 e0       	ldi	r18, 0x00	; 0
     b1c:	30 e0       	ldi	r19, 0x00	; 0
     b1e:	96 e0       	ldi	r25, 0x06	; 6
     b20:	d9 2e       	mov	r13, r25
     b22:	ea 81       	ldd	r30, Y+2	; 0x02
     b24:	fb 81       	ldd	r31, Y+3	; 0x03
     b26:	60 81       	ld	r22, Z
     b28:	71 81       	ldd	r23, Z+1	; 0x01
     b2a:	26 17       	cp	r18, r22
     b2c:	37 07       	cpc	r19, r23
     b2e:	e8 f6       	brcc	.-70     	; 0xaea <__stack+0x1eb>
     b30:	0c 81       	ldd	r16, Y+4	; 0x04
     b32:	1d 81       	ldd	r17, Y+5	; 0x05
     b34:	fa 01       	movw	r30, r20
     b36:	ee 0f       	add	r30, r30
     b38:	ff 1f       	adc	r31, r31
     b3a:	e0 0f       	add	r30, r16
     b3c:	f1 1f       	adc	r31, r17
     b3e:	80 81       	ld	r24, Z
     b40:	98 2f       	mov	r25, r24
     b42:	97 7f       	andi	r25, 0xF7	; 247
     b44:	a1 f1       	breq	.+104    	; 0xbae <__stack+0x2af>
     b46:	85 38       	cpi	r24, 0x85	; 133
     b48:	11 f0       	breq	.+4      	; 0xb4e <__stack+0x24f>
     b4a:	83 30       	cpi	r24, 0x03	; 3
     b4c:	b1 f5       	brne	.+108    	; 0xbba <__stack+0x2bb>
     b4e:	ee 80       	ldd	r14, Y+6	; 0x06
     b50:	ff 80       	ldd	r15, Y+7	; 0x07
     b52:	d7 01       	movw	r26, r14
     b54:	a4 0f       	add	r26, r20
     b56:	b5 1f       	adc	r27, r21
     b58:	12 96       	adiw	r26, 0x02	; 2
     b5a:	bc 90       	ld	r11, X
     b5c:	bb 20       	and	r11, r11
     b5e:	39 f1       	breq	.+78     	; 0xbae <__stack+0x2af>
     b60:	80 e0       	ldi	r24, 0x00	; 0
     b62:	90 e0       	ldi	r25, 0x00	; 0
     b64:	c1 2c       	mov	r12, r1
     b66:	86 17       	cp	r24, r22
     b68:	97 07       	cpc	r25, r23
     b6a:	f8 f4       	brcc	.+62     	; 0xbaa <__stack+0x2ab>
     b6c:	28 17       	cp	r18, r24
     b6e:	39 07       	cpc	r19, r25
     b70:	d1 f0       	breq	.+52     	; 0xba6 <__stack+0x2a7>
     b72:	d8 9e       	mul	r13, r24
     b74:	d0 01       	movw	r26, r0
     b76:	d9 9e       	mul	r13, r25
     b78:	b0 0d       	add	r27, r0
     b7a:	11 24       	eor	r1, r1
     b7c:	a0 0f       	add	r26, r16
     b7e:	b1 1f       	adc	r27, r17
     b80:	ac 91       	ld	r26, X
     b82:	a4 30       	cpi	r26, 0x04	; 4
     b84:	11 f0       	breq	.+4      	; 0xb8a <__stack+0x28b>
     b86:	a6 38       	cpi	r26, 0x86	; 134
     b88:	71 f4       	brne	.+28     	; 0xba6 <__stack+0x2a7>
     b8a:	dc 01       	movw	r26, r24
     b8c:	aa 0f       	add	r26, r26
     b8e:	bb 1f       	adc	r27, r27
     b90:	a8 0f       	add	r26, r24
     b92:	b9 1f       	adc	r27, r25
     b94:	ae 0d       	add	r26, r14
     b96:	bf 1d       	adc	r27, r15
     b98:	12 96       	adiw	r26, 0x02	; 2
     b9a:	ac 91       	ld	r26, X
     b9c:	ba 12       	cpse	r11, r26
     b9e:	03 c0       	rjmp	.+6      	; 0xba6 <__stack+0x2a7>
     ba0:	cb 01       	movw	r24, r22
     ba2:	cc 24       	eor	r12, r12
     ba4:	c3 94       	inc	r12
     ba6:	01 96       	adiw	r24, 0x01	; 1
     ba8:	de cf       	rjmp	.-68     	; 0xb66 <__stack+0x267>
     baa:	c1 10       	cpse	r12, r1
     bac:	06 c0       	rjmp	.+12     	; 0xbba <__stack+0x2bb>
     bae:	02 80       	ldd	r0, Z+2	; 0x02
     bb0:	f3 81       	ldd	r31, Z+3	; 0x03
     bb2:	e0 2d       	mov	r30, r0
     bb4:	80 81       	ld	r24, Z
     bb6:	8e 7f       	andi	r24, 0xFE	; 254
     bb8:	05 c0       	rjmp	.+10     	; 0xbc4 <__stack+0x2c5>
     bba:	02 80       	ldd	r0, Z+2	; 0x02
     bbc:	f3 81       	ldd	r31, Z+3	; 0x03
     bbe:	e0 2d       	mov	r30, r0
     bc0:	80 81       	ld	r24, Z
     bc2:	81 60       	ori	r24, 0x01	; 1
     bc4:	80 83       	st	Z, r24
     bc6:	2f 5f       	subi	r18, 0xFF	; 255
     bc8:	3f 4f       	sbci	r19, 0xFF	; 255
     bca:	4d 5f       	subi	r20, 0xFD	; 253
     bcc:	5f 4f       	sbci	r21, 0xFF	; 255
     bce:	a9 cf       	rjmp	.-174    	; 0xb22 <__stack+0x223>
     bd0:	80 81       	ld	r24, Z
     bd2:	81 60       	ori	r24, 0x01	; 1
     bd4:	80 83       	st	Z, r24
     bd6:	80 91 50 01 	lds	r24, 0x0150	; 0x800150 <qtm_local_ms_timecount>
     bda:	90 91 51 01 	lds	r25, 0x0151	; 0x800151 <qtm_local_ms_timecount+0x1>
     bde:	e8 81       	ld	r30, Y
     be0:	f9 81       	ldd	r31, Y+1	; 0x01
     be2:	21 81       	ldd	r18, Z+1	; 0x01
     be4:	32 81       	ldd	r19, Z+2	; 0x02
     be6:	a9 01       	movw	r20, r18
     be8:	48 53       	subi	r20, 0x38	; 56
     bea:	5f 4f       	sbci	r21, 0xFF	; 255
     bec:	48 17       	cp	r20, r24
     bee:	59 07       	cpc	r21, r25
     bf0:	38 f4       	brcc	.+14     	; 0xc00 <__stack+0x301>
     bf2:	82 1b       	sub	r24, r18
     bf4:	93 0b       	sbc	r25, r19
     bf6:	aa 24       	eor	r10, r10
     bf8:	a3 94       	inc	r10
     bfa:	a3 e0       	ldi	r26, 0x03	; 3
     bfc:	ba 2e       	mov	r11, r26
     bfe:	44 c0       	rjmp	.+136    	; 0xc88 <__stack+0x389>
     c00:	82 17       	cp	r24, r18
     c02:	93 07       	cpc	r25, r19
     c04:	10 f0       	brcs	.+4      	; 0xc0a <__stack+0x30b>
     c06:	80 e0       	ldi	r24, 0x00	; 0
     c08:	04 c1       	rjmp	.+520    	; 0xe12 <__stack+0x513>
     c0a:	82 1b       	sub	r24, r18
     c0c:	93 0b       	sbc	r25, r19
     c0e:	01 97       	sbiw	r24, 0x01	; 1
     c10:	89 3c       	cpi	r24, 0xC9	; 201
     c12:	91 05       	cpc	r25, r1
     c14:	c0 f3       	brcs	.-16     	; 0xc06 <__stack+0x307>
     c16:	ef cf       	rjmp	.-34     	; 0xbf6 <__stack+0x2f7>
     c18:	88 5c       	subi	r24, 0xC8	; 200
     c1a:	91 09       	sbc	r25, r1
     c1c:	e8 81       	ld	r30, Y
     c1e:	f9 81       	ldd	r31, Y+1	; 0x01
     c20:	21 81       	ldd	r18, Z+1	; 0x01
     c22:	32 81       	ldd	r19, Z+2	; 0x02
     c24:	28 53       	subi	r18, 0x38	; 56
     c26:	3f 4f       	sbci	r19, 0xFF	; 255
     c28:	32 83       	std	Z+2, r19	; 0x02
     c2a:	21 83       	std	Z+1, r18	; 0x01
     c2c:	23 81       	ldd	r18, Z+3	; 0x03
     c2e:	21 11       	cpse	r18, r1
     c30:	96 c0       	rjmp	.+300    	; 0xd5e <__stack+0x45f>
     c32:	24 81       	ldd	r18, Z+4	; 0x04
     c34:	22 23       	and	r18, r18
     c36:	11 f0       	breq	.+4      	; 0xc3c <__stack+0x33d>
     c38:	21 50       	subi	r18, 0x01	; 1
     c3a:	24 83       	std	Z+4, r18	; 0x04
     c3c:	e8 81       	ld	r30, Y
     c3e:	f9 81       	ldd	r31, Y+1	; 0x01
     c40:	25 81       	ldd	r18, Z+5	; 0x05
     c42:	22 23       	and	r18, r18
     c44:	11 f0       	breq	.+4      	; 0xc4a <__stack+0x34b>
     c46:	21 50       	subi	r18, 0x01	; 1
     c48:	25 83       	std	Z+5, r18	; 0x05
     c4a:	8a 80       	ldd	r8, Y+2	; 0x02
     c4c:	9b 80       	ldd	r9, Y+3	; 0x03
     c4e:	d4 01       	movw	r26, r8
     c50:	16 96       	adiw	r26, 0x06	; 6
     c52:	2c 91       	ld	r18, X
     c54:	16 97       	sbiw	r26, 0x06	; 6
     c56:	21 11       	cpse	r18, r1
     c58:	1b c0       	rjmp	.+54     	; 0xc90 <__stack+0x391>
     c5a:	8a 80       	ldd	r8, Y+2	; 0x02
     c5c:	9b 80       	ldd	r9, Y+3	; 0x03
     c5e:	f4 01       	movw	r30, r8
     c60:	27 81       	ldd	r18, Z+7	; 0x07
     c62:	21 11       	cpse	r18, r1
     c64:	48 c0       	rjmp	.+144    	; 0xcf6 <__stack+0x3f7>
     c66:	ea 81       	ldd	r30, Y+2	; 0x02
     c68:	fb 81       	ldd	r31, Y+3	; 0x03
     c6a:	23 81       	ldd	r18, Z+3	; 0x03
     c6c:	22 23       	and	r18, r18
     c6e:	61 f0       	breq	.+24     	; 0xc88 <__stack+0x389>
     c70:	20 e0       	ldi	r18, 0x00	; 0
     c72:	30 e0       	ldi	r19, 0x00	; 0
     c74:	a0 e0       	ldi	r26, 0x00	; 0
     c76:	b0 e0       	ldi	r27, 0x00	; 0
     c78:	ea 81       	ldd	r30, Y+2	; 0x02
     c7a:	fb 81       	ldd	r31, Y+3	; 0x03
     c7c:	40 81       	ld	r20, Z
     c7e:	51 81       	ldd	r21, Z+1	; 0x01
     c80:	a4 17       	cp	r26, r20
     c82:	b5 07       	cpc	r27, r21
     c84:	08 f4       	brcc	.+2      	; 0xc88 <__stack+0x389>
     c86:	6e c0       	rjmp	.+220    	; 0xd64 <__stack+0x465>
     c88:	89 3c       	cpi	r24, 0xC9	; 201
     c8a:	91 05       	cpc	r25, r1
     c8c:	28 f6       	brcc	.-118    	; 0xc18 <__stack+0x319>
     c8e:	bb cf       	rjmp	.-138    	; 0xc06 <__stack+0x307>
     c90:	08 81       	ld	r16, Y
     c92:	19 81       	ldd	r17, Y+1	; 0x01
     c94:	f8 01       	movw	r30, r16
     c96:	24 81       	ldd	r18, Z+4	; 0x04
     c98:	21 11       	cpse	r18, r1
     c9a:	df cf       	rjmp	.-66     	; 0xc5a <__stack+0x35b>
     c9c:	ed 90       	ld	r14, X+
     c9e:	fc 90       	ld	r15, X
     ca0:	60 e0       	ldi	r22, 0x00	; 0
     ca2:	70 e0       	ldi	r23, 0x00	; 0
     ca4:	40 e0       	ldi	r20, 0x00	; 0
     ca6:	50 e0       	ldi	r21, 0x00	; 0
     ca8:	4e 15       	cp	r20, r14
     caa:	5f 05       	cpc	r21, r15
     cac:	f1 f0       	breq	.+60     	; 0xcea <__stack+0x3eb>
     cae:	ec 81       	ldd	r30, Y+4	; 0x04
     cb0:	fd 81       	ldd	r31, Y+5	; 0x05
     cb2:	e6 0f       	add	r30, r22
     cb4:	f7 1f       	adc	r31, r23
     cb6:	20 81       	ld	r18, Z
     cb8:	23 30       	cpi	r18, 0x03	; 3
     cba:	11 f0       	breq	.+4      	; 0xcc0 <__stack+0x3c1>
     cbc:	28 30       	cpi	r18, 0x08	; 8
     cbe:	81 f4       	brne	.+32     	; 0xce0 <__stack+0x3e1>
     cc0:	24 81       	ldd	r18, Z+4	; 0x04
     cc2:	35 81       	ldd	r19, Z+5	; 0x05
     cc4:	c2 80       	ldd	r12, Z+2	; 0x02
     cc6:	d3 80       	ldd	r13, Z+3	; 0x03
     cc8:	d6 01       	movw	r26, r12
     cca:	11 96       	adiw	r26, 0x01	; 1
     ccc:	cd 90       	ld	r12, X+
     cce:	dc 90       	ld	r13, X
     cd0:	12 97       	sbiw	r26, 0x02	; 2
     cd2:	2c 15       	cp	r18, r12
     cd4:	3d 05       	cpc	r19, r13
     cd6:	20 f4       	brcc	.+8      	; 0xce0 <__stack+0x3e1>
     cd8:	2f 5f       	subi	r18, 0xFF	; 255
     cda:	3f 4f       	sbci	r19, 0xFF	; 255
     cdc:	35 83       	std	Z+5, r19	; 0x05
     cde:	24 83       	std	Z+4, r18	; 0x04
     ce0:	4f 5f       	subi	r20, 0xFF	; 255
     ce2:	5f 4f       	sbci	r21, 0xFF	; 255
     ce4:	6a 5f       	subi	r22, 0xFA	; 250
     ce6:	7f 4f       	sbci	r23, 0xFF	; 255
     ce8:	df cf       	rjmp	.-66     	; 0xca8 <__stack+0x3a9>
     cea:	f4 01       	movw	r30, r8
     cec:	26 81       	ldd	r18, Z+6	; 0x06
     cee:	d8 01       	movw	r26, r16
     cf0:	14 96       	adiw	r26, 0x04	; 4
     cf2:	2c 93       	st	X, r18
     cf4:	b2 cf       	rjmp	.-156    	; 0xc5a <__stack+0x35b>
     cf6:	08 81       	ld	r16, Y
     cf8:	19 81       	ldd	r17, Y+1	; 0x01
     cfa:	d8 01       	movw	r26, r16
     cfc:	15 96       	adiw	r26, 0x05	; 5
     cfe:	2c 91       	ld	r18, X
     d00:	21 11       	cpse	r18, r1
     d02:	b1 cf       	rjmp	.-158    	; 0xc66 <__stack+0x367>
     d04:	e0 80       	ld	r14, Z
     d06:	f1 80       	ldd	r15, Z+1	; 0x01
     d08:	60 e0       	ldi	r22, 0x00	; 0
     d0a:	70 e0       	ldi	r23, 0x00	; 0
     d0c:	40 e0       	ldi	r20, 0x00	; 0
     d0e:	50 e0       	ldi	r21, 0x00	; 0
     d10:	4e 15       	cp	r20, r14
     d12:	5f 05       	cpc	r21, r15
     d14:	f1 f0       	breq	.+60     	; 0xd52 <__stack+0x453>
     d16:	ec 81       	ldd	r30, Y+4	; 0x04
     d18:	fd 81       	ldd	r31, Y+5	; 0x05
     d1a:	e6 0f       	add	r30, r22
     d1c:	f7 1f       	adc	r31, r23
     d1e:	20 81       	ld	r18, Z
     d20:	23 30       	cpi	r18, 0x03	; 3
     d22:	11 f0       	breq	.+4      	; 0xd28 <__stack+0x429>
     d24:	28 30       	cpi	r18, 0x08	; 8
     d26:	81 f4       	brne	.+32     	; 0xd48 <__stack+0x449>
     d28:	24 81       	ldd	r18, Z+4	; 0x04
     d2a:	35 81       	ldd	r19, Z+5	; 0x05
     d2c:	c2 80       	ldd	r12, Z+2	; 0x02
     d2e:	d3 80       	ldd	r13, Z+3	; 0x03
     d30:	d6 01       	movw	r26, r12
     d32:	11 96       	adiw	r26, 0x01	; 1
     d34:	cd 90       	ld	r12, X+
     d36:	dc 90       	ld	r13, X
     d38:	12 97       	sbiw	r26, 0x02	; 2
     d3a:	c2 16       	cp	r12, r18
     d3c:	d3 06       	cpc	r13, r19
     d3e:	20 f4       	brcc	.+8      	; 0xd48 <__stack+0x449>
     d40:	21 50       	subi	r18, 0x01	; 1
     d42:	31 09       	sbc	r19, r1
     d44:	35 83       	std	Z+5, r19	; 0x05
     d46:	24 83       	std	Z+4, r18	; 0x04
     d48:	4f 5f       	subi	r20, 0xFF	; 255
     d4a:	5f 4f       	sbci	r21, 0xFF	; 255
     d4c:	6a 5f       	subi	r22, 0xFA	; 250
     d4e:	7f 4f       	sbci	r23, 0xFF	; 255
     d50:	df cf       	rjmp	.-66     	; 0xd10 <__stack+0x411>
     d52:	f4 01       	movw	r30, r8
     d54:	27 81       	ldd	r18, Z+7	; 0x07
     d56:	d8 01       	movw	r26, r16
     d58:	15 96       	adiw	r26, 0x05	; 5
     d5a:	2c 93       	st	X, r18
     d5c:	84 cf       	rjmp	.-248    	; 0xc66 <__stack+0x367>
     d5e:	21 50       	subi	r18, 0x01	; 1
     d60:	23 83       	std	Z+3, r18	; 0x03
     d62:	81 cf       	rjmp	.-254    	; 0xc66 <__stack+0x367>
     d64:	a9 01       	movw	r20, r18
     d66:	44 0f       	add	r20, r20
     d68:	55 1f       	adc	r21, r21
     d6a:	ec 81       	ldd	r30, Y+4	; 0x04
     d6c:	fd 81       	ldd	r31, Y+5	; 0x05
     d6e:	e4 0f       	add	r30, r20
     d70:	f5 1f       	adc	r31, r21
     d72:	60 81       	ld	r22, Z
     d74:	65 38       	cpi	r22, 0x85	; 133
     d76:	09 f0       	breq	.+2      	; 0xd7a <__stack+0x47b>
     d78:	47 c0       	rjmp	.+142    	; 0xe08 <__stack+0x509>
     d7a:	61 81       	ldd	r22, Z+1	; 0x01
     d7c:	66 23       	and	r22, r22
     d7e:	19 f0       	breq	.+6      	; 0xd86 <__stack+0x487>
     d80:	61 50       	subi	r22, 0x01	; 1
     d82:	61 83       	std	Z+1, r22	; 0x01
     d84:	41 c0       	rjmp	.+130    	; 0xe08 <__stack+0x509>
     d86:	a0 82       	st	Z, r10
     d88:	6c 81       	ldd	r22, Y+4	; 0x04
     d8a:	7d 81       	ldd	r23, Y+5	; 0x05
     d8c:	fb 01       	movw	r30, r22
     d8e:	e4 0f       	add	r30, r20
     d90:	f5 1f       	adc	r31, r21
     d92:	02 80       	ldd	r0, Z+2	; 0x02
     d94:	f3 81       	ldd	r31, Z+3	; 0x03
     d96:	e0 2d       	mov	r30, r0
     d98:	b0 82       	st	Z, r11
     d9a:	ee 81       	ldd	r30, Y+6	; 0x06
     d9c:	ff 81       	ldd	r31, Y+7	; 0x07
     d9e:	e2 0f       	add	r30, r18
     da0:	f3 1f       	adc	r31, r19
     da2:	d2 80       	ldd	r13, Z+2	; 0x02
     da4:	dd 20       	and	r13, r13
     da6:	81 f1       	breq	.+96     	; 0xe08 <__stack+0x509>
     da8:	40 e0       	ldi	r20, 0x00	; 0
     daa:	50 e0       	ldi	r21, 0x00	; 0
     dac:	00 e0       	ldi	r16, 0x00	; 0
     dae:	10 e0       	ldi	r17, 0x00	; 0
     db0:	ea 81       	ldd	r30, Y+2	; 0x02
     db2:	fb 81       	ldd	r31, Y+3	; 0x03
     db4:	60 81       	ld	r22, Z
     db6:	71 81       	ldd	r23, Z+1	; 0x01
     db8:	06 17       	cp	r16, r22
     dba:	17 07       	cpc	r17, r23
     dbc:	28 f5       	brcc	.+74     	; 0xe08 <__stack+0x509>
     dbe:	ee 81       	ldd	r30, Y+6	; 0x06
     dc0:	ff 81       	ldd	r31, Y+7	; 0x07
     dc2:	e4 0f       	add	r30, r20
     dc4:	f5 1f       	adc	r31, r21
     dc6:	62 81       	ldd	r22, Z+2	; 0x02
     dc8:	d6 12       	cpse	r13, r22
     dca:	19 c0       	rjmp	.+50     	; 0xdfe <__stack+0x4ff>
     dcc:	ba 01       	movw	r22, r20
     dce:	66 0f       	add	r22, r22
     dd0:	77 1f       	adc	r23, r23
     dd2:	ec 81       	ldd	r30, Y+4	; 0x04
     dd4:	fd 81       	ldd	r31, Y+5	; 0x05
     dd6:	4f 01       	movw	r8, r30
     dd8:	86 0e       	add	r8, r22
     dda:	97 1e       	adc	r9, r23
     ddc:	f4 01       	movw	r30, r8
     dde:	e2 80       	ldd	r14, Z+2	; 0x02
     de0:	f3 80       	ldd	r15, Z+3	; 0x03
     de2:	f7 01       	movw	r30, r14
     de4:	f0 80       	ld	r15, Z
     de6:	f0 fe       	sbrs	r15, 0
     de8:	0a c0       	rjmp	.+20     	; 0xdfe <__stack+0x4ff>
     dea:	f4 01       	movw	r30, r8
     dec:	a0 82       	st	Z, r10
     dee:	ec 81       	ldd	r30, Y+4	; 0x04
     df0:	fd 81       	ldd	r31, Y+5	; 0x05
     df2:	e6 0f       	add	r30, r22
     df4:	f7 1f       	adc	r31, r23
     df6:	02 80       	ldd	r0, Z+2	; 0x02
     df8:	f3 81       	ldd	r31, Z+3	; 0x03
     dfa:	e0 2d       	mov	r30, r0
     dfc:	b0 82       	st	Z, r11
     dfe:	0f 5f       	subi	r16, 0xFF	; 255
     e00:	1f 4f       	sbci	r17, 0xFF	; 255
     e02:	4d 5f       	subi	r20, 0xFD	; 253
     e04:	5f 4f       	sbci	r21, 0xFF	; 255
     e06:	d4 cf       	rjmp	.-88     	; 0xdb0 <__stack+0x4b1>
     e08:	11 96       	adiw	r26, 0x01	; 1
     e0a:	2d 5f       	subi	r18, 0xFD	; 253
     e0c:	3f 4f       	sbci	r19, 0xFF	; 255
     e0e:	34 cf       	rjmp	.-408    	; 0xc78 <__stack+0x379>
     e10:	8b e0       	ldi	r24, 0x0B	; 11
     e12:	df 91       	pop	r29
     e14:	cf 91       	pop	r28
     e16:	1f 91       	pop	r17
     e18:	0f 91       	pop	r16
     e1a:	ff 90       	pop	r15
     e1c:	ef 90       	pop	r14
     e1e:	df 90       	pop	r13
     e20:	cf 90       	pop	r12
     e22:	bf 90       	pop	r11
     e24:	af 90       	pop	r10
     e26:	9f 90       	pop	r9
     e28:	8f 90       	pop	r8
     e2a:	7f 90       	pop	r7
     e2c:	6f 90       	pop	r6
     e2e:	5f 90       	pop	r5
     e30:	4f 90       	pop	r4
     e32:	3f 90       	pop	r3
     e34:	2f 90       	pop	r2
     e36:	08 95       	ret

00000e38 <select_next_channel_to_measure>:
     e38:	80 91 59 01 	lds	r24, 0x0159	; 0x800159 <current_measure_channel>
     e3c:	90 91 5a 01 	lds	r25, 0x015A	; 0x80015a <current_measure_channel+0x1>
     e40:	a0 91 73 01 	lds	r26, 0x0173	; 0x800173 <qtm_acquisition_control_working_set_ptr>
     e44:	b0 91 74 01 	lds	r27, 0x0174	; 0x800174 <qtm_acquisition_control_working_set_ptr+0x1>
     e48:	ed 91       	ld	r30, X+
     e4a:	fc 91       	ld	r31, X
     e4c:	11 97       	sbiw	r26, 0x01	; 1
     e4e:	40 81       	ld	r20, Z
     e50:	51 81       	ldd	r21, Z+1	; 0x01
     e52:	25 e0       	ldi	r18, 0x05	; 5
     e54:	28 9f       	mul	r18, r24
     e56:	b0 01       	movw	r22, r0
     e58:	29 9f       	mul	r18, r25
     e5a:	70 0d       	add	r23, r0
     e5c:	11 24       	eor	r1, r1
     e5e:	20 e0       	ldi	r18, 0x00	; 0
     e60:	30 e0       	ldi	r19, 0x00	; 0
     e62:	84 17       	cp	r24, r20
     e64:	95 07       	cpc	r25, r21
     e66:	a8 f4       	brcc	.+42     	; 0xe92 <select_next_channel_to_measure+0x5a>
     e68:	14 96       	adiw	r26, 0x04	; 4
     e6a:	ed 91       	ld	r30, X+
     e6c:	fc 91       	ld	r31, X
     e6e:	15 97       	sbiw	r26, 0x05	; 5
     e70:	e2 0f       	add	r30, r18
     e72:	f3 1f       	adc	r31, r19
     e74:	e6 0f       	add	r30, r22
     e76:	f7 1f       	adc	r31, r23
     e78:	e0 81       	ld	r30, Z
     e7a:	2b 5f       	subi	r18, 0xFB	; 251
     e7c:	3f 4f       	sbci	r19, 0xFF	; 255
     e7e:	e0 fd       	sbrc	r30, 0
     e80:	02 c0       	rjmp	.+4      	; 0xe86 <select_next_channel_to_measure+0x4e>
     e82:	01 96       	adiw	r24, 0x01	; 1
     e84:	ee cf       	rjmp	.-36     	; 0xe62 <select_next_channel_to_measure+0x2a>
     e86:	90 93 5a 01 	sts	0x015A, r25	; 0x80015a <current_measure_channel+0x1>
     e8a:	80 93 59 01 	sts	0x0159, r24	; 0x800159 <current_measure_channel>
     e8e:	80 e0       	ldi	r24, 0x00	; 0
     e90:	08 95       	ret
     e92:	10 92 5a 01 	sts	0x015A, r1	; 0x80015a <current_measure_channel+0x1>
     e96:	10 92 59 01 	sts	0x0159, r1	; 0x800159 <current_measure_channel>
     e9a:	81 e0       	ldi	r24, 0x01	; 1
     e9c:	08 95       	ret

00000e9e <qtm_measure_node>:
     e9e:	4a e0       	ldi	r20, 0x0A	; 10
     ea0:	48 9f       	mul	r20, r24
     ea2:	90 01       	movw	r18, r0
     ea4:	49 9f       	mul	r20, r25
     ea6:	30 0d       	add	r19, r0
     ea8:	11 24       	eor	r1, r1
     eaa:	e0 91 73 01 	lds	r30, 0x0173	; 0x800173 <qtm_acquisition_control_working_set_ptr>
     eae:	f0 91 74 01 	lds	r31, 0x0174	; 0x800174 <qtm_acquisition_control_working_set_ptr+0x1>
     eb2:	02 80       	ldd	r0, Z+2	; 0x02
     eb4:	f3 81       	ldd	r31, Z+3	; 0x03
     eb6:	e0 2d       	mov	r30, r0
     eb8:	e2 0f       	add	r30, r18
     eba:	f3 1f       	adc	r31, r19
     ebc:	42 81       	ldd	r20, Z+2	; 0x02
     ebe:	40 93 f8 00 	sts	0x00F8, r20	; 0x8000f8 <__TEXT_REGION_LENGTH__+0x7f80f8>
     ec2:	e0 91 73 01 	lds	r30, 0x0173	; 0x800173 <qtm_acquisition_control_working_set_ptr>
     ec6:	f0 91 74 01 	lds	r31, 0x0174	; 0x800174 <qtm_acquisition_control_working_set_ptr+0x1>
     eca:	02 80       	ldd	r0, Z+2	; 0x02
     ecc:	f3 81       	ldd	r31, Z+3	; 0x03
     ece:	e0 2d       	mov	r30, r0
     ed0:	e2 0f       	add	r30, r18
     ed2:	f3 1f       	adc	r31, r19
     ed4:	43 81       	ldd	r20, Z+3	; 0x03
     ed6:	40 93 f9 00 	sts	0x00F9, r20	; 0x8000f9 <__TEXT_REGION_LENGTH__+0x7f80f9>
     eda:	e0 91 73 01 	lds	r30, 0x0173	; 0x800173 <qtm_acquisition_control_working_set_ptr>
     ede:	f0 91 74 01 	lds	r31, 0x0174	; 0x800174 <qtm_acquisition_control_working_set_ptr+0x1>
     ee2:	02 80       	ldd	r0, Z+2	; 0x02
     ee4:	f3 81       	ldd	r31, Z+3	; 0x03
     ee6:	e0 2d       	mov	r30, r0
     ee8:	e2 0f       	add	r30, r18
     eea:	f3 1f       	adc	r31, r19
     eec:	44 81       	ldd	r20, Z+4	; 0x04
     eee:	40 93 fa 00 	sts	0x00FA, r20	; 0x8000fa <__TEXT_REGION_LENGTH__+0x7f80fa>
     ef2:	e0 91 73 01 	lds	r30, 0x0173	; 0x800173 <qtm_acquisition_control_working_set_ptr>
     ef6:	f0 91 74 01 	lds	r31, 0x0174	; 0x800174 <qtm_acquisition_control_working_set_ptr+0x1>
     efa:	02 80       	ldd	r0, Z+2	; 0x02
     efc:	f3 81       	ldd	r31, Z+3	; 0x03
     efe:	e0 2d       	mov	r30, r0
     f00:	e2 0f       	add	r30, r18
     f02:	f3 1f       	adc	r31, r19
     f04:	40 81       	ld	r20, Z
     f06:	40 93 f2 00 	sts	0x00F2, r20	; 0x8000f2 <__TEXT_REGION_LENGTH__+0x7f80f2>
     f0a:	e0 91 73 01 	lds	r30, 0x0173	; 0x800173 <qtm_acquisition_control_working_set_ptr>
     f0e:	f0 91 74 01 	lds	r31, 0x0174	; 0x800174 <qtm_acquisition_control_working_set_ptr+0x1>
     f12:	02 80       	ldd	r0, Z+2	; 0x02
     f14:	f3 81       	ldd	r31, Z+3	; 0x03
     f16:	e0 2d       	mov	r30, r0
     f18:	e2 0f       	add	r30, r18
     f1a:	f3 1f       	adc	r31, r19
     f1c:	41 81       	ldd	r20, Z+1	; 0x01
     f1e:	40 93 f3 00 	sts	0x00F3, r20	; 0x8000f3 <__TEXT_REGION_LENGTH__+0x7f80f3>
     f22:	65 e0       	ldi	r22, 0x05	; 5
     f24:	68 9f       	mul	r22, r24
     f26:	a0 01       	movw	r20, r0
     f28:	69 9f       	mul	r22, r25
     f2a:	50 0d       	add	r21, r0
     f2c:	11 24       	eor	r1, r1
     f2e:	e0 91 73 01 	lds	r30, 0x0173	; 0x800173 <qtm_acquisition_control_working_set_ptr>
     f32:	f0 91 74 01 	lds	r31, 0x0174	; 0x800174 <qtm_acquisition_control_working_set_ptr+0x1>
     f36:	04 80       	ldd	r0, Z+4	; 0x04
     f38:	f5 81       	ldd	r31, Z+5	; 0x05
     f3a:	e0 2d       	mov	r30, r0
     f3c:	e4 0f       	add	r30, r20
     f3e:	f5 1f       	adc	r31, r21
     f40:	83 81       	ldd	r24, Z+3	; 0x03
     f42:	80 93 e5 00 	sts	0x00E5, r24	; 0x8000e5 <__TEXT_REGION_LENGTH__+0x7f80e5>
     f46:	e0 91 73 01 	lds	r30, 0x0173	; 0x800173 <qtm_acquisition_control_working_set_ptr>
     f4a:	f0 91 74 01 	lds	r31, 0x0174	; 0x800174 <qtm_acquisition_control_working_set_ptr+0x1>
     f4e:	04 80       	ldd	r0, Z+4	; 0x04
     f50:	f5 81       	ldd	r31, Z+5	; 0x05
     f52:	e0 2d       	mov	r30, r0
     f54:	e4 0f       	add	r30, r20
     f56:	f5 1f       	adc	r31, r21
     f58:	83 81       	ldd	r24, Z+3	; 0x03
     f5a:	94 81       	ldd	r25, Z+4	; 0x04
     f5c:	88 27       	eor	r24, r24
     f5e:	9f 73       	andi	r25, 0x3F	; 63
     f60:	90 93 e6 00 	sts	0x00E6, r25	; 0x8000e6 <__TEXT_REGION_LENGTH__+0x7f80e6>
     f64:	a0 91 73 01 	lds	r26, 0x0173	; 0x800173 <qtm_acquisition_control_working_set_ptr>
     f68:	b0 91 74 01 	lds	r27, 0x0174	; 0x800174 <qtm_acquisition_control_working_set_ptr+0x1>
     f6c:	14 96       	adiw	r26, 0x04	; 4
     f6e:	ed 91       	ld	r30, X+
     f70:	fc 91       	ld	r31, X
     f72:	15 97       	sbiw	r26, 0x05	; 5
     f74:	e4 0f       	add	r30, r20
     f76:	f5 1f       	adc	r31, r21
     f78:	80 81       	ld	r24, Z
     f7a:	81 fd       	sbrc	r24, 1
     f7c:	60 83       	st	Z, r22
     f7e:	14 96       	adiw	r26, 0x04	; 4
     f80:	8d 91       	ld	r24, X+
     f82:	9c 91       	ld	r25, X
     f84:	15 97       	sbiw	r26, 0x05	; 5
     f86:	fc 01       	movw	r30, r24
     f88:	e4 0f       	add	r30, r20
     f8a:	f5 1f       	adc	r31, r21
     f8c:	80 81       	ld	r24, Z
     f8e:	8c 71       	andi	r24, 0x1C	; 28
     f90:	71 f4       	brne	.+28     	; 0xfae <qtm_measure_node+0x110>
     f92:	12 96       	adiw	r26, 0x02	; 2
     f94:	ed 91       	ld	r30, X+
     f96:	fc 91       	ld	r31, X
     f98:	13 97       	sbiw	r26, 0x03	; 3
     f9a:	e2 0f       	add	r30, r18
     f9c:	f3 1f       	adc	r31, r19
     f9e:	e0 85       	ldd	r30, Z+8	; 0x08
     fa0:	e2 95       	swap	r30
     fa2:	ef 70       	andi	r30, 0x0F	; 15
     fa4:	f0 e0       	ldi	r31, 0x00	; 0
     fa6:	e0 5c       	subi	r30, 0xC0	; 192
     fa8:	fe 4f       	sbci	r31, 0xFE	; 254
     faa:	80 81       	ld	r24, Z
     fac:	01 c0       	rjmp	.+2      	; 0xfb0 <qtm_measure_node+0x112>
     fae:	8f e3       	ldi	r24, 0x3F	; 63
     fb0:	80 93 e7 00 	sts	0x00E7, r24	; 0x8000e7 <__TEXT_REGION_LENGTH__+0x7f80e7>
     fb4:	e0 91 73 01 	lds	r30, 0x0173	; 0x800173 <qtm_acquisition_control_working_set_ptr>
     fb8:	f0 91 74 01 	lds	r31, 0x0174	; 0x800174 <qtm_acquisition_control_working_set_ptr+0x1>
     fbc:	02 80       	ldd	r0, Z+2	; 0x02
     fbe:	f3 81       	ldd	r31, Z+3	; 0x03
     fc0:	e0 2d       	mov	r30, r0
     fc2:	e2 0f       	add	r30, r18
     fc4:	f3 1f       	adc	r31, r19
     fc6:	86 81       	ldd	r24, Z+6	; 0x06
     fc8:	8b 3f       	cpi	r24, 0xFB	; 251
     fca:	10 f4       	brcc	.+4      	; 0xfd0 <qtm_measure_node+0x132>
     fcc:	8c 5f       	subi	r24, 0xFC	; 252
     fce:	01 c0       	rjmp	.+2      	; 0xfd2 <qtm_measure_node+0x134>
     fd0:	8f ef       	ldi	r24, 0xFF	; 255
     fd2:	80 93 e8 00 	sts	0x00E8, r24	; 0x8000e8 <__TEXT_REGION_LENGTH__+0x7f80e8>
     fd6:	e0 91 73 01 	lds	r30, 0x0173	; 0x800173 <qtm_acquisition_control_working_set_ptr>
     fda:	f0 91 74 01 	lds	r31, 0x0174	; 0x800174 <qtm_acquisition_control_working_set_ptr+0x1>
     fde:	02 80       	ldd	r0, Z+2	; 0x02
     fe0:	f3 81       	ldd	r31, Z+3	; 0x03
     fe2:	e0 2d       	mov	r30, r0
     fe4:	e2 0f       	add	r30, r18
     fe6:	f3 1f       	adc	r31, r19
     fe8:	87 81       	ldd	r24, Z+7	; 0x07
     fea:	80 7f       	andi	r24, 0xF0	; 240
     fec:	91 85       	ldd	r25, Z+9	; 0x09
     fee:	89 2b       	or	r24, r25
     ff0:	80 93 e4 00 	sts	0x00E4, r24	; 0x8000e4 <__TEXT_REGION_LENGTH__+0x7f80e4>
     ff4:	e0 91 73 01 	lds	r30, 0x0173	; 0x800173 <qtm_acquisition_control_working_set_ptr>
     ff8:	f0 91 74 01 	lds	r31, 0x0174	; 0x800174 <qtm_acquisition_control_working_set_ptr+0x1>
     ffc:	82 81       	ldd	r24, Z+2	; 0x02
     ffe:	93 81       	ldd	r25, Z+3	; 0x03
    1000:	fc 01       	movw	r30, r24
    1002:	e2 0f       	add	r30, r18
    1004:	f3 1f       	adc	r31, r19
    1006:	87 81       	ldd	r24, Z+7	; 0x07
    1008:	8f 70       	andi	r24, 0x0F	; 15
    100a:	80 93 e1 00 	sts	0x00E1, r24	; 0x8000e1 <__TEXT_REGION_LENGTH__+0x7f80e1>
    100e:	82 e1       	ldi	r24, 0x12	; 18
    1010:	80 93 e0 00 	sts	0x00E0, r24	; 0x8000e0 <__TEXT_REGION_LENGTH__+0x7f80e0>
    1014:	80 91 e9 00 	lds	r24, 0x00E9	; 0x8000e9 <__TEXT_REGION_LENGTH__+0x7f80e9>
    1018:	81 60       	ori	r24, 0x01	; 1
    101a:	80 93 e9 00 	sts	0x00E9, r24	; 0x8000e9 <__TEXT_REGION_LENGTH__+0x7f80e9>
    101e:	08 95       	ret

00001020 <qtm_acquisition_process>:
    1020:	4f 92       	push	r4
    1022:	5f 92       	push	r5
    1024:	6f 92       	push	r6
    1026:	7f 92       	push	r7
    1028:	8f 92       	push	r8
    102a:	9f 92       	push	r9
    102c:	af 92       	push	r10
    102e:	bf 92       	push	r11
    1030:	cf 92       	push	r12
    1032:	df 92       	push	r13
    1034:	ef 92       	push	r14
    1036:	ff 92       	push	r15
    1038:	0f 93       	push	r16
    103a:	1f 93       	push	r17
    103c:	cf 93       	push	r28
    103e:	df 93       	push	r29
    1040:	80 91 58 01 	lds	r24, 0x0158	; 0x800158 <touch_seq_lib_state>
    1044:	88 23       	and	r24, r24
    1046:	09 f4       	brne	.+2      	; 0x104a <qtm_acquisition_process+0x2a>
    1048:	31 c1       	rjmp	.+610    	; 0x12ac <qtm_acquisition_process+0x28c>
    104a:	a0 91 73 01 	lds	r26, 0x0173	; 0x800173 <qtm_acquisition_control_working_set_ptr>
    104e:	b0 91 74 01 	lds	r27, 0x0174	; 0x800174 <qtm_acquisition_control_working_set_ptr+0x1>
    1052:	e0 90 75 01 	lds	r14, 0x0175	; 0x800175 <qtm_raw_data_measurements_ptr>
    1056:	f0 90 76 01 	lds	r15, 0x0176	; 0x800176 <qtm_raw_data_measurements_ptr+0x1>
    105a:	41 2c       	mov	r4, r1
    105c:	51 2c       	mov	r5, r1
    105e:	60 e0       	ldi	r22, 0x00	; 0
    1060:	70 e0       	ldi	r23, 0x00	; 0
    1062:	00 e0       	ldi	r16, 0x00	; 0
    1064:	10 e0       	ldi	r17, 0x00	; 0
    1066:	80 e0       	ldi	r24, 0x00	; 0
    1068:	66 24       	eor	r6, r6
    106a:	63 94       	inc	r6
    106c:	91 e8       	ldi	r25, 0x81	; 129
    106e:	79 2e       	mov	r7, r25
    1070:	aa 24       	eor	r10, r10
    1072:	aa 94       	dec	r10
    1074:	bb 24       	eor	r11, r11
    1076:	b3 94       	inc	r11
    1078:	cd 90       	ld	r12, X+
    107a:	dc 90       	ld	r13, X
    107c:	11 97       	sbiw	r26, 0x01	; 1
    107e:	f6 01       	movw	r30, r12
    1080:	20 81       	ld	r18, Z
    1082:	31 81       	ldd	r19, Z+1	; 0x01
    1084:	02 17       	cp	r16, r18
    1086:	13 07       	cpc	r17, r19
    1088:	08 f0       	brcs	.+2      	; 0x108c <qtm_acquisition_process+0x6c>
    108a:	0c c1       	rjmp	.+536    	; 0x12a4 <qtm_acquisition_process+0x284>
    108c:	e7 01       	movw	r28, r14
    108e:	29 91       	ld	r18, Y+
    1090:	39 91       	ld	r19, Y+
    1092:	7e 01       	movw	r14, r28
    1094:	14 96       	adiw	r26, 0x04	; 4
    1096:	ed 91       	ld	r30, X+
    1098:	fc 91       	ld	r31, X
    109a:	15 97       	sbiw	r26, 0x05	; 5
    109c:	e6 0f       	add	r30, r22
    109e:	f7 1f       	adc	r31, r23
    10a0:	40 81       	ld	r20, Z
    10a2:	4c 71       	andi	r20, 0x1C	; 28
    10a4:	50 e0       	ldi	r21, 0x00	; 0
    10a6:	56 95       	lsr	r21
    10a8:	47 95       	ror	r20
    10aa:	56 95       	lsr	r21
    10ac:	47 95       	ror	r20
    10ae:	41 15       	cp	r20, r1
    10b0:	51 05       	cpc	r21, r1
    10b2:	21 f0       	breq	.+8      	; 0x10bc <qtm_acquisition_process+0x9c>
    10b4:	41 30       	cpi	r20, 0x01	; 1
    10b6:	51 05       	cpc	r21, r1
    10b8:	c1 f0       	breq	.+48     	; 0x10ea <qtm_acquisition_process+0xca>
    10ba:	eb c0       	rjmp	.+470    	; 0x1292 <qtm_acquisition_process+0x272>
    10bc:	12 96       	adiw	r26, 0x02	; 2
    10be:	4d 91       	ld	r20, X+
    10c0:	5c 91       	ld	r21, X
    10c2:	13 97       	sbiw	r26, 0x03	; 3
    10c4:	44 0d       	add	r20, r4
    10c6:	55 1d       	adc	r21, r5
    10c8:	ea 01       	movw	r28, r20
    10ca:	98 85       	ldd	r25, Y+8	; 0x08
    10cc:	9f 70       	andi	r25, 0x0F	; 15
    10ce:	49 85       	ldd	r20, Y+9	; 0x09
    10d0:	94 17       	cp	r25, r20
    10d2:	10 f4       	brcc	.+4      	; 0x10d8 <qtm_acquisition_process+0xb8>
    10d4:	49 1b       	sub	r20, r25
    10d6:	01 c0       	rjmp	.+2      	; 0x10da <qtm_acquisition_process+0xba>
    10d8:	40 e0       	ldi	r20, 0x00	; 0
    10da:	02 c0       	rjmp	.+4      	; 0x10e0 <qtm_acquisition_process+0xc0>
    10dc:	36 95       	lsr	r19
    10de:	27 95       	ror	r18
    10e0:	4a 95       	dec	r20
    10e2:	e2 f7       	brpl	.-8      	; 0x10dc <qtm_acquisition_process+0xbc>
    10e4:	32 83       	std	Z+2, r19	; 0x02
    10e6:	21 83       	std	Z+1, r18	; 0x01
    10e8:	d5 c0       	rjmp	.+426    	; 0x1294 <qtm_acquisition_process+0x274>
    10ea:	12 96       	adiw	r26, 0x02	; 2
    10ec:	4d 91       	ld	r20, X+
    10ee:	5c 91       	ld	r21, X
    10f0:	13 97       	sbiw	r26, 0x03	; 3
    10f2:	44 0d       	add	r20, r4
    10f4:	55 1d       	adc	r21, r5
    10f6:	ea 01       	movw	r28, r20
    10f8:	09 84       	ldd	r0, Y+9	; 0x09
    10fa:	02 c0       	rjmp	.+4      	; 0x1100 <qtm_acquisition_process+0xe0>
    10fc:	36 95       	lsr	r19
    10fe:	27 95       	ror	r18
    1100:	0a 94       	dec	r0
    1102:	e2 f7       	brpl	.-8      	; 0x10fc <qtm_acquisition_process+0xdc>
    1104:	32 83       	std	Z+2, r19	; 0x02
    1106:	21 83       	std	Z+1, r18	; 0x01
    1108:	43 81       	ldd	r20, Z+3	; 0x03
    110a:	54 81       	ldd	r21, Z+4	; 0x04
    110c:	21 15       	cp	r18, r1
    110e:	d2 e0       	ldi	r29, 0x02	; 2
    1110:	3d 07       	cpc	r19, r29
    1112:	20 f0       	brcs	.+8      	; 0x111c <qtm_acquisition_process+0xfc>
    1114:	2f 5f       	subi	r18, 0xFF	; 255
    1116:	31 40       	sbci	r19, 0x01	; 1
    1118:	91 e0       	ldi	r25, 0x01	; 1
    111a:	05 c0       	rjmp	.+10     	; 0x1126 <qtm_acquisition_process+0x106>
    111c:	e5 01       	movw	r28, r10
    111e:	c2 1b       	sub	r28, r18
    1120:	d3 0b       	sbc	r29, r19
    1122:	9e 01       	movw	r18, r28
    1124:	90 e0       	ldi	r25, 0x00	; 0
    1126:	e6 01       	movw	r28, r12
    1128:	da 80       	ldd	r13, Y+2	; 0x02
    112a:	d0 e4       	ldi	r29, 0x40	; 64
    112c:	dd 12       	cpse	r13, r29
    112e:	05 c0       	rjmp	.+10     	; 0x113a <qtm_acquisition_process+0x11a>
    1130:	36 95       	lsr	r19
    1132:	27 95       	ror	r18
    1134:	99 23       	and	r25, r25
    1136:	19 f0       	breq	.+6      	; 0x113e <qtm_acquisition_process+0x11e>
    1138:	09 c0       	rjmp	.+18     	; 0x114c <qtm_acquisition_process+0x12c>
    113a:	99 23       	and	r25, r25
    113c:	39 f0       	breq	.+14     	; 0x114c <qtm_acquisition_process+0x12c>
    113e:	4f 3f       	cpi	r20, 0xFF	; 255
    1140:	9f e3       	ldi	r25, 0x3F	; 63
    1142:	59 07       	cpc	r21, r25
    1144:	31 f4       	brne	.+12     	; 0x1152 <qtm_acquisition_process+0x132>
    1146:	70 82       	st	Z, r7
    1148:	8e e0       	ldi	r24, 0x0E	; 14
    114a:	07 c0       	rjmp	.+14     	; 0x115a <qtm_acquisition_process+0x13a>
    114c:	88 24       	eor	r8, r8
    114e:	83 94       	inc	r8
    1150:	01 c0       	rjmp	.+2      	; 0x1154 <qtm_acquisition_process+0x134>
    1152:	81 2c       	mov	r8, r1
    1154:	2a 30       	cpi	r18, 0x0A	; 10
    1156:	31 05       	cpc	r19, r1
    1158:	98 f4       	brcc	.+38     	; 0x1180 <qtm_acquisition_process+0x160>
    115a:	14 96       	adiw	r26, 0x04	; 4
    115c:	ed 91       	ld	r30, X+
    115e:	fc 91       	ld	r31, X
    1160:	15 97       	sbiw	r26, 0x05	; 5
    1162:	e6 0f       	add	r30, r22
    1164:	f7 1f       	adc	r31, r23
    1166:	20 81       	ld	r18, Z
    1168:	27 ff       	sbrs	r18, 7
    116a:	60 82       	st	Z, r6
    116c:	14 96       	adiw	r26, 0x04	; 4
    116e:	ed 91       	ld	r30, X+
    1170:	fc 91       	ld	r31, X
    1172:	15 97       	sbiw	r26, 0x05	; 5
    1174:	e6 0f       	add	r30, r22
    1176:	f7 1f       	adc	r31, r23
    1178:	5f 73       	andi	r21, 0x3F	; 63
    117a:	54 83       	std	Z+4, r21	; 0x04
    117c:	43 83       	std	Z+3, r20	; 0x03
    117e:	8a c0       	rjmp	.+276    	; 0x1294 <qtm_acquisition_process+0x274>
    1180:	6a 01       	movw	r12, r20
    1182:	cc 24       	eor	r12, r12
    1184:	c0 e3       	ldi	r28, 0x30	; 48
    1186:	dc 22       	and	r13, r28
    1188:	9d 2c       	mov	r9, r13
    118a:	92 94       	swap	r9
    118c:	df e0       	ldi	r29, 0x0F	; 15
    118e:	9d 22       	and	r9, r29
    1190:	6a 01       	movw	r12, r20
    1192:	cc 24       	eor	r12, r12
    1194:	df e0       	ldi	r29, 0x0F	; 15
    1196:	dd 22       	and	r13, r29
    1198:	9d 2d       	mov	r25, r13
    119a:	6a 01       	movw	r12, r20
    119c:	c0 ef       	ldi	r28, 0xF0	; 240
    119e:	cc 22       	and	r12, r28
    11a0:	dd 24       	eor	r13, r13
    11a2:	54 e0       	ldi	r21, 0x04	; 4
    11a4:	d6 94       	lsr	r13
    11a6:	c7 94       	ror	r12
    11a8:	5a 95       	dec	r21
    11aa:	e1 f7       	brne	.-8      	; 0x11a4 <qtm_acquisition_process+0x184>
    11ac:	5c 2d       	mov	r21, r12
    11ae:	4f 70       	andi	r20, 0x0F	; 15
    11b0:	81 10       	cpse	r8, r1
    11b2:	32 c0       	rjmp	.+100    	; 0x1218 <qtm_acquisition_process+0x1f8>
    11b4:	20 3d       	cpi	r18, 0xD0	; 208
    11b6:	31 05       	cpc	r19, r1
    11b8:	60 f0       	brcs	.+24     	; 0x11d2 <qtm_acquisition_process+0x1b2>
    11ba:	d3 e0       	ldi	r29, 0x03	; 3
    11bc:	9d 16       	cp	r9, r29
    11be:	49 f0       	breq	.+18     	; 0x11d2 <qtm_acquisition_process+0x1b2>
    11c0:	93 94       	inc	r9
    11c2:	2f 5c       	subi	r18, 0xCF	; 207
    11c4:	31 09       	sbc	r19, r1
    11c6:	f6 cf       	rjmp	.-20     	; 0x11b4 <qtm_acquisition_process+0x194>
    11c8:	9f 30       	cpi	r25, 0x0F	; 15
    11ca:	41 f0       	breq	.+16     	; 0x11dc <qtm_acquisition_process+0x1bc>
    11cc:	9f 5f       	subi	r25, 0xFF	; 255
    11ce:	25 51       	subi	r18, 0x15	; 21
    11d0:	31 09       	sbc	r19, r1
    11d2:	26 31       	cpi	r18, 0x16	; 22
    11d4:	31 05       	cpc	r19, r1
    11d6:	c0 f7       	brcc	.-16     	; 0x11c8 <qtm_acquisition_process+0x1a8>
    11d8:	9f 30       	cpi	r25, 0x0F	; 15
    11da:	69 f4       	brne	.+26     	; 0x11f6 <qtm_acquisition_process+0x1d6>
    11dc:	93 e0       	ldi	r25, 0x03	; 3
    11de:	99 12       	cpse	r9, r25
    11e0:	02 c0       	rjmp	.+4      	; 0x11e6 <qtm_acquisition_process+0x1c6>
    11e2:	9f e0       	ldi	r25, 0x0F	; 15
    11e4:	08 c0       	rjmp	.+16     	; 0x11f6 <qtm_acquisition_process+0x1d6>
    11e6:	93 94       	inc	r9
    11e8:	95 e0       	ldi	r25, 0x05	; 5
    11ea:	05 c0       	rjmp	.+10     	; 0x11f6 <qtm_acquisition_process+0x1d6>
    11ec:	5f 30       	cpi	r21, 0x0F	; 15
    11ee:	49 f0       	breq	.+18     	; 0x1202 <qtm_acquisition_process+0x1e2>
    11f0:	5f 5f       	subi	r21, 0xFF	; 255
    11f2:	22 50       	subi	r18, 0x02	; 2
    11f4:	31 09       	sbc	r19, r1
    11f6:	23 30       	cpi	r18, 0x03	; 3
    11f8:	31 05       	cpc	r19, r1
    11fa:	c0 f7       	brcc	.-16     	; 0x11ec <qtm_acquisition_process+0x1cc>
    11fc:	5f 30       	cpi	r21, 0x0F	; 15
    11fe:	09 f0       	breq	.+2      	; 0x1202 <qtm_acquisition_process+0x1e2>
    1200:	5b c0       	rjmp	.+182    	; 0x12b8 <qtm_acquisition_process+0x298>
    1202:	9f 30       	cpi	r25, 0x0F	; 15
    1204:	09 f4       	brne	.+2      	; 0x1208 <qtm_acquisition_process+0x1e8>
    1206:	54 c0       	rjmp	.+168    	; 0x12b0 <qtm_acquisition_process+0x290>
    1208:	9f 5f       	subi	r25, 0xFF	; 255
    120a:	55 e0       	ldi	r21, 0x05	; 5
    120c:	55 c0       	rjmp	.+170    	; 0x12b8 <qtm_acquisition_process+0x298>
    120e:	99 20       	and	r9, r9
    1210:	61 f0       	breq	.+24     	; 0x122a <qtm_acquisition_process+0x20a>
    1212:	9a 94       	dec	r9
    1214:	2f 5c       	subi	r18, 0xCF	; 207
    1216:	31 09       	sbc	r19, r1
    1218:	20 3d       	cpi	r18, 0xD0	; 208
    121a:	31 05       	cpc	r19, r1
    121c:	c0 f7       	brcc	.-16     	; 0x120e <qtm_acquisition_process+0x1ee>
    121e:	05 c0       	rjmp	.+10     	; 0x122a <qtm_acquisition_process+0x20a>
    1220:	99 23       	and	r25, r25
    1222:	41 f0       	breq	.+16     	; 0x1234 <qtm_acquisition_process+0x214>
    1224:	91 50       	subi	r25, 0x01	; 1
    1226:	25 51       	subi	r18, 0x15	; 21
    1228:	31 09       	sbc	r19, r1
    122a:	26 31       	cpi	r18, 0x16	; 22
    122c:	31 05       	cpc	r19, r1
    122e:	c0 f7       	brcc	.-16     	; 0x1220 <qtm_acquisition_process+0x200>
    1230:	91 11       	cpse	r25, r1
    1232:	0c c0       	rjmp	.+24     	; 0x124c <qtm_acquisition_process+0x22c>
    1234:	91 10       	cpse	r9, r1
    1236:	02 c0       	rjmp	.+4      	; 0x123c <qtm_acquisition_process+0x21c>
    1238:	90 e0       	ldi	r25, 0x00	; 0
    123a:	08 c0       	rjmp	.+16     	; 0x124c <qtm_acquisition_process+0x22c>
    123c:	9a 94       	dec	r9
    123e:	9a e0       	ldi	r25, 0x0A	; 10
    1240:	05 c0       	rjmp	.+10     	; 0x124c <qtm_acquisition_process+0x22c>
    1242:	55 23       	and	r21, r21
    1244:	41 f0       	breq	.+16     	; 0x1256 <qtm_acquisition_process+0x236>
    1246:	51 50       	subi	r21, 0x01	; 1
    1248:	22 50       	subi	r18, 0x02	; 2
    124a:	31 09       	sbc	r19, r1
    124c:	23 30       	cpi	r18, 0x03	; 3
    124e:	31 05       	cpc	r19, r1
    1250:	c0 f7       	brcc	.-16     	; 0x1242 <qtm_acquisition_process+0x222>
    1252:	51 11       	cpse	r21, r1
    1254:	0d c0       	rjmp	.+26     	; 0x1270 <qtm_acquisition_process+0x250>
    1256:	99 23       	and	r25, r25
    1258:	b9 f1       	breq	.+110    	; 0x12c8 <qtm_acquisition_process+0x2a8>
    125a:	91 50       	subi	r25, 0x01	; 1
    125c:	5a e0       	ldi	r21, 0x0A	; 10
    125e:	23 30       	cpi	r18, 0x03	; 3
    1260:	31 05       	cpc	r19, r1
    1262:	d0 f6       	brcc	.-76     	; 0x1218 <qtm_acquisition_process+0x1f8>
    1264:	05 c0       	rjmp	.+10     	; 0x1270 <qtm_acquisition_process+0x250>
    1266:	23 30       	cpi	r18, 0x03	; 3
    1268:	31 05       	cpc	r19, r1
    126a:	58 f1       	brcs	.+86     	; 0x12c2 <qtm_acquisition_process+0x2a2>
    126c:	4f e0       	ldi	r20, 0x0F	; 15
    126e:	5f e0       	ldi	r21, 0x0F	; 15
    1270:	29 2d       	mov	r18, r9
    1272:	30 e0       	ldi	r19, 0x00	; 0
    1274:	32 2f       	mov	r19, r18
    1276:	22 27       	eor	r18, r18
    1278:	32 95       	swap	r19
    127a:	30 7f       	andi	r19, 0xF0	; 240
    127c:	39 2b       	or	r19, r25
    127e:	24 2b       	or	r18, r20
    1280:	c0 e1       	ldi	r28, 0x10	; 16
    1282:	5c 9f       	mul	r21, r28
    1284:	60 01       	movw	r12, r0
    1286:	11 24       	eor	r1, r1
    1288:	c2 2a       	or	r12, r18
    128a:	d3 2a       	or	r13, r19
    128c:	d4 82       	std	Z+4, r13	; 0x04
    128e:	c3 82       	std	Z+3, r12	; 0x03
    1290:	01 c0       	rjmp	.+2      	; 0x1294 <qtm_acquisition_process+0x274>
    1292:	ff cf       	rjmp	.-2      	; 0x1292 <qtm_acquisition_process+0x272>
    1294:	0f 5f       	subi	r16, 0xFF	; 255
    1296:	1f 4f       	sbci	r17, 0xFF	; 255
    1298:	6b 5f       	subi	r22, 0xFB	; 251
    129a:	7f 4f       	sbci	r23, 0xFF	; 255
    129c:	da e0       	ldi	r29, 0x0A	; 10
    129e:	4d 0e       	add	r4, r29
    12a0:	51 1c       	adc	r5, r1
    12a2:	ea ce       	rjmp	.-556    	; 0x1078 <qtm_acquisition_process+0x58>
    12a4:	92 e0       	ldi	r25, 0x02	; 2
    12a6:	90 93 58 01 	sts	0x0158, r25	; 0x800158 <touch_seq_lib_state>
    12aa:	10 c0       	rjmp	.+32     	; 0x12cc <qtm_acquisition_process+0x2ac>
    12ac:	83 e0       	ldi	r24, 0x03	; 3
    12ae:	0e c0       	rjmp	.+28     	; 0x12cc <qtm_acquisition_process+0x2ac>
    12b0:	53 e0       	ldi	r21, 0x03	; 3
    12b2:	95 16       	cp	r9, r21
    12b4:	c1 f2       	breq	.-80     	; 0x1266 <qtm_acquisition_process+0x246>
    12b6:	5f e0       	ldi	r21, 0x0F	; 15
    12b8:	23 30       	cpi	r18, 0x03	; 3
    12ba:	31 05       	cpc	r19, r1
    12bc:	08 f0       	brcs	.+2      	; 0x12c0 <qtm_acquisition_process+0x2a0>
    12be:	7a cf       	rjmp	.-268    	; 0x11b4 <qtm_acquisition_process+0x194>
    12c0:	d7 cf       	rjmp	.-82     	; 0x1270 <qtm_acquisition_process+0x250>
    12c2:	5f e0       	ldi	r21, 0x0F	; 15
    12c4:	4f e0       	ldi	r20, 0x0F	; 15
    12c6:	d4 cf       	rjmp	.-88     	; 0x1270 <qtm_acquisition_process+0x250>
    12c8:	50 e0       	ldi	r21, 0x00	; 0
    12ca:	d2 cf       	rjmp	.-92     	; 0x1270 <qtm_acquisition_process+0x250>
    12cc:	df 91       	pop	r29
    12ce:	cf 91       	pop	r28
    12d0:	1f 91       	pop	r17
    12d2:	0f 91       	pop	r16
    12d4:	ff 90       	pop	r15
    12d6:	ef 90       	pop	r14
    12d8:	df 90       	pop	r13
    12da:	cf 90       	pop	r12
    12dc:	bf 90       	pop	r11
    12de:	af 90       	pop	r10
    12e0:	9f 90       	pop	r9
    12e2:	8f 90       	pop	r8
    12e4:	7f 90       	pop	r7
    12e6:	6f 90       	pop	r6
    12e8:	5f 90       	pop	r5
    12ea:	4f 90       	pop	r4
    12ec:	08 95       	ret

000012ee <qtm_ptc_init_acquisition_module>:
    12ee:	8f 92       	push	r8
    12f0:	9f 92       	push	r9
    12f2:	af 92       	push	r10
    12f4:	bf 92       	push	r11
    12f6:	cf 92       	push	r12
    12f8:	df 92       	push	r13
    12fa:	ef 92       	push	r14
    12fc:	ff 92       	push	r15
    12fe:	cf 93       	push	r28
    1300:	df 93       	push	r29
    1302:	00 97       	sbiw	r24, 0x00	; 0
    1304:	09 f4       	brne	.+2      	; 0x1308 <qtm_ptc_init_acquisition_module+0x1a>
    1306:	6c c0       	rjmp	.+216    	; 0x13e0 <qtm_ptc_init_acquisition_module+0xf2>
    1308:	dc 01       	movw	r26, r24
    130a:	ed 91       	ld	r30, X+
    130c:	fc 91       	ld	r31, X
    130e:	c0 80       	ld	r12, Z
    1310:	d1 80       	ldd	r13, Z+1	; 0x01
    1312:	e1 2c       	mov	r14, r1
    1314:	f1 2c       	mov	r15, r1
    1316:	a0 e0       	ldi	r26, 0x00	; 0
    1318:	b0 e0       	ldi	r27, 0x00	; 0
    131a:	40 e0       	ldi	r20, 0x00	; 0
    131c:	50 e0       	ldi	r21, 0x00	; 0
    131e:	ba 01       	movw	r22, r20
    1320:	20 e0       	ldi	r18, 0x00	; 0
    1322:	30 e0       	ldi	r19, 0x00	; 0
    1324:	ac 15       	cp	r26, r12
    1326:	bd 05       	cpc	r27, r13
    1328:	b1 f0       	breq	.+44     	; 0x1356 <qtm_ptc_init_acquisition_module+0x68>
    132a:	ec 01       	movw	r28, r24
    132c:	ea 81       	ldd	r30, Y+2	; 0x02
    132e:	fb 81       	ldd	r31, Y+3	; 0x03
    1330:	ee 0d       	add	r30, r14
    1332:	ff 1d       	adc	r31, r15
    1334:	a0 80       	ld	r10, Z
    1336:	b1 80       	ldd	r11, Z+1	; 0x01
    1338:	2a 29       	or	r18, r10
    133a:	3b 29       	or	r19, r11
    133c:	82 80       	ldd	r8, Z+2	; 0x02
    133e:	93 80       	ldd	r9, Z+3	; 0x03
    1340:	a4 80       	ldd	r10, Z+4	; 0x04
    1342:	b5 80       	ldd	r11, Z+5	; 0x05
    1344:	48 29       	or	r20, r8
    1346:	59 29       	or	r21, r9
    1348:	6a 29       	or	r22, r10
    134a:	7b 29       	or	r23, r11
    134c:	11 96       	adiw	r26, 0x01	; 1
    134e:	da e0       	ldi	r29, 0x0A	; 10
    1350:	ed 0e       	add	r14, r29
    1352:	f1 1c       	adc	r15, r1
    1354:	e7 cf       	rjmp	.-50     	; 0x1324 <qtm_ptc_init_acquisition_module+0x36>
    1356:	41 15       	cp	r20, r1
    1358:	51 05       	cpc	r21, r1
    135a:	61 05       	cpc	r22, r1
    135c:	71 05       	cpc	r23, r1
    135e:	09 f4       	brne	.+2      	; 0x1362 <qtm_ptc_init_acquisition_module+0x74>
    1360:	41 c0       	rjmp	.+130    	; 0x13e4 <qtm_ptc_init_acquisition_module+0xf6>
    1362:	e0 91 58 01 	lds	r30, 0x0158	; 0x800158 <touch_seq_lib_state>
    1366:	6a 01       	movw	r12, r20
    1368:	7b 01       	movw	r14, r22
    136a:	cc 24       	eor	r12, r12
    136c:	ee 24       	eor	r14, r14
    136e:	ff 24       	eor	r15, r15
    1370:	db 01       	movw	r26, r22
    1372:	ca 01       	movw	r24, r20
    1374:	88 27       	eor	r24, r24
    1376:	99 27       	eor	r25, r25
    1378:	bb 27       	eor	r27, r27
    137a:	e1 11       	cpse	r30, r1
    137c:	15 c0       	rjmp	.+42     	; 0x13a8 <qtm_ptc_init_acquisition_module+0xba>
    137e:	20 93 f0 00 	sts	0x00F0, r18	; 0x8000f0 <__TEXT_REGION_LENGTH__+0x7f80f0>
    1382:	30 93 f1 00 	sts	0x00F1, r19	; 0x8000f1 <__TEXT_REGION_LENGTH__+0x7f80f1>
    1386:	40 93 f4 00 	sts	0x00F4, r20	; 0x8000f4 <__TEXT_REGION_LENGTH__+0x7f80f4>
    138a:	cd 2c       	mov	r12, r13
    138c:	de 2c       	mov	r13, r14
    138e:	ef 2c       	mov	r14, r15
    1390:	ff 24       	eor	r15, r15
    1392:	c0 92 f5 00 	sts	0x00F5, r12	; 0x8000f5 <__TEXT_REGION_LENGTH__+0x7f80f5>
    1396:	cd 01       	movw	r24, r26
    1398:	aa 27       	eor	r26, r26
    139a:	bb 27       	eor	r27, r27
    139c:	80 93 f6 00 	sts	0x00F6, r24	; 0x8000f6 <__TEXT_REGION_LENGTH__+0x7f80f6>
    13a0:	81 e0       	ldi	r24, 0x01	; 1
    13a2:	80 93 58 01 	sts	0x0158, r24	; 0x800158 <touch_seq_lib_state>
    13a6:	1a c0       	rjmp	.+52     	; 0x13dc <qtm_ptc_init_acquisition_module+0xee>
    13a8:	e0 91 f0 00 	lds	r30, 0x00F0	; 0x8000f0 <__TEXT_REGION_LENGTH__+0x7f80f0>
    13ac:	2e 2b       	or	r18, r30
    13ae:	20 93 f0 00 	sts	0x00F0, r18	; 0x8000f0 <__TEXT_REGION_LENGTH__+0x7f80f0>
    13b2:	20 91 f1 00 	lds	r18, 0x00F1	; 0x8000f1 <__TEXT_REGION_LENGTH__+0x7f80f1>
    13b6:	23 2b       	or	r18, r19
    13b8:	20 93 f1 00 	sts	0x00F1, r18	; 0x8000f1 <__TEXT_REGION_LENGTH__+0x7f80f1>
    13bc:	20 91 f4 00 	lds	r18, 0x00F4	; 0x8000f4 <__TEXT_REGION_LENGTH__+0x7f80f4>
    13c0:	42 2b       	or	r20, r18
    13c2:	40 93 f4 00 	sts	0x00F4, r20	; 0x8000f4 <__TEXT_REGION_LENGTH__+0x7f80f4>
    13c6:	20 91 f5 00 	lds	r18, 0x00F5	; 0x8000f5 <__TEXT_REGION_LENGTH__+0x7f80f5>
    13ca:	2d 29       	or	r18, r13
    13cc:	20 93 f5 00 	sts	0x00F5, r18	; 0x8000f5 <__TEXT_REGION_LENGTH__+0x7f80f5>
    13d0:	20 91 f6 00 	lds	r18, 0x00F6	; 0x8000f6 <__TEXT_REGION_LENGTH__+0x7f80f6>
    13d4:	82 2f       	mov	r24, r18
    13d6:	8a 2b       	or	r24, r26
    13d8:	80 93 f6 00 	sts	0x00F6, r24	; 0x8000f6 <__TEXT_REGION_LENGTH__+0x7f80f6>
    13dc:	80 e0       	ldi	r24, 0x00	; 0
    13de:	03 c0       	rjmp	.+6      	; 0x13e6 <qtm_ptc_init_acquisition_module+0xf8>
    13e0:	8b e0       	ldi	r24, 0x0B	; 11
    13e2:	01 c0       	rjmp	.+2      	; 0x13e6 <qtm_ptc_init_acquisition_module+0xf8>
    13e4:	82 e0       	ldi	r24, 0x02	; 2
    13e6:	df 91       	pop	r29
    13e8:	cf 91       	pop	r28
    13ea:	ff 90       	pop	r15
    13ec:	ef 90       	pop	r14
    13ee:	df 90       	pop	r13
    13f0:	cf 90       	pop	r12
    13f2:	bf 90       	pop	r11
    13f4:	af 90       	pop	r10
    13f6:	9f 90       	pop	r9
    13f8:	8f 90       	pop	r8
    13fa:	08 95       	ret

000013fc <qtm_ptc_qtlib_assign_signal_memory>:
    13fc:	00 97       	sbiw	r24, 0x00	; 0
    13fe:	31 f0       	breq	.+12     	; 0x140c <qtm_ptc_qtlib_assign_signal_memory+0x10>
    1400:	90 93 76 01 	sts	0x0176, r25	; 0x800176 <qtm_raw_data_measurements_ptr+0x1>
    1404:	80 93 75 01 	sts	0x0175, r24	; 0x800175 <qtm_raw_data_measurements_ptr>
    1408:	80 e0       	ldi	r24, 0x00	; 0
    140a:	08 95       	ret
    140c:	8b e0       	ldi	r24, 0x0B	; 11
    140e:	08 95       	ret

00001410 <qtm_ptc_start_measurement_seq>:
    1410:	cf 93       	push	r28
    1412:	df 93       	push	r29
    1414:	00 d0       	rcall	.+0      	; 0x1416 <qtm_ptc_start_measurement_seq+0x6>
    1416:	00 d0       	rcall	.+0      	; 0x1418 <qtm_ptc_start_measurement_seq+0x8>
    1418:	cd b7       	in	r28, 0x3d	; 61
    141a:	de b7       	in	r29, 0x3e	; 62
    141c:	10 92 5c 01 	sts	0x015C, r1	; 0x80015c <max_conversion_cycles>
    1420:	10 92 5d 01 	sts	0x015D, r1	; 0x80015d <max_conversion_cycles+0x1>
    1424:	10 92 5e 01 	sts	0x015E, r1	; 0x80015e <max_conversion_cycles+0x2>
    1428:	10 92 5f 01 	sts	0x015F, r1	; 0x80015f <max_conversion_cycles+0x3>
    142c:	61 15       	cp	r22, r1
    142e:	71 05       	cpc	r23, r1
    1430:	09 f4       	brne	.+2      	; 0x1434 <qtm_ptc_start_measurement_seq+0x24>
    1432:	db c0       	rjmp	.+438    	; 0x15ea <qtm_ptc_start_measurement_seq+0x1da>
    1434:	00 97       	sbiw	r24, 0x00	; 0
    1436:	09 f4       	brne	.+2      	; 0x143a <qtm_ptc_start_measurement_seq+0x2a>
    1438:	d8 c0       	rjmp	.+432    	; 0x15ea <qtm_ptc_start_measurement_seq+0x1da>
    143a:	20 91 58 01 	lds	r18, 0x0158	; 0x800158 <touch_seq_lib_state>
    143e:	22 23       	and	r18, r18
    1440:	09 f4       	brne	.+2      	; 0x1444 <qtm_ptc_start_measurement_seq+0x34>
    1442:	d5 c0       	rjmp	.+426    	; 0x15ee <qtm_ptc_start_measurement_seq+0x1de>
    1444:	24 30       	cpi	r18, 0x04	; 4
    1446:	09 f0       	breq	.+2      	; 0x144a <qtm_ptc_start_measurement_seq+0x3a>
    1448:	93 c0       	rjmp	.+294    	; 0x1570 <qtm_ptc_start_measurement_seq+0x160>
    144a:	10 92 5b 01 	sts	0x015B, r1	; 0x80015b <ptc_eoc_ok_flag>
    144e:	80 91 e9 00 	lds	r24, 0x00E9	; 0x8000e9 <__TEXT_REGION_LENGTH__+0x7f80e9>
    1452:	80 ff       	sbrs	r24, 0
    1454:	8b c0       	rjmp	.+278    	; 0x156c <qtm_ptc_start_measurement_seq+0x15c>
    1456:	20 91 e8 00 	lds	r18, 0x00E8	; 0x8000e8 <__TEXT_REGION_LENGTH__+0x7f80e8>
    145a:	30 e0       	ldi	r19, 0x00	; 0
    145c:	a6 e0       	ldi	r26, 0x06	; 6
    145e:	b0 e0       	ldi	r27, 0x00	; 0
    1460:	0e 94 a1 0b 	call	0x1742	; 0x1742 <__umulhisi3>
    1464:	60 93 5c 01 	sts	0x015C, r22	; 0x80015c <max_conversion_cycles>
    1468:	70 93 5d 01 	sts	0x015D, r23	; 0x80015d <max_conversion_cycles+0x1>
    146c:	80 93 5e 01 	sts	0x015E, r24	; 0x80015e <max_conversion_cycles+0x2>
    1470:	90 93 5f 01 	sts	0x015F, r25	; 0x80015f <max_conversion_cycles+0x3>
    1474:	20 91 e3 00 	lds	r18, 0x00E3	; 0x8000e3 <__TEXT_REGION_LENGTH__+0x7f80e3>
    1478:	2f 70       	andi	r18, 0x0F	; 15
    147a:	dc 01       	movw	r26, r24
    147c:	cb 01       	movw	r24, r22
    147e:	82 0f       	add	r24, r18
    1480:	91 1d       	adc	r25, r1
    1482:	a1 1d       	adc	r26, r1
    1484:	b1 1d       	adc	r27, r1
    1486:	80 93 5c 01 	sts	0x015C, r24	; 0x80015c <max_conversion_cycles>
    148a:	90 93 5d 01 	sts	0x015D, r25	; 0x80015d <max_conversion_cycles+0x1>
    148e:	a0 93 5e 01 	sts	0x015E, r26	; 0x80015e <max_conversion_cycles+0x2>
    1492:	b0 93 5f 01 	sts	0x015F, r27	; 0x80015f <max_conversion_cycles+0x3>
    1496:	20 91 e4 00 	lds	r18, 0x00E4	; 0x8000e4 <__TEXT_REGION_LENGTH__+0x7f80e4>
    149a:	27 70       	andi	r18, 0x07	; 7
    149c:	04 c0       	rjmp	.+8      	; 0x14a6 <qtm_ptc_start_measurement_seq+0x96>
    149e:	88 0f       	add	r24, r24
    14a0:	99 1f       	adc	r25, r25
    14a2:	aa 1f       	adc	r26, r26
    14a4:	bb 1f       	adc	r27, r27
    14a6:	2a 95       	dec	r18
    14a8:	d2 f7       	brpl	.-12     	; 0x149e <qtm_ptc_start_measurement_seq+0x8e>
    14aa:	0e 96       	adiw	r24, 0x0e	; 14
    14ac:	a1 1d       	adc	r26, r1
    14ae:	b1 1d       	adc	r27, r1
    14b0:	80 93 5c 01 	sts	0x015C, r24	; 0x80015c <max_conversion_cycles>
    14b4:	90 93 5d 01 	sts	0x015D, r25	; 0x80015d <max_conversion_cycles+0x1>
    14b8:	a0 93 5e 01 	sts	0x015E, r26	; 0x80015e <max_conversion_cycles+0x2>
    14bc:	b0 93 5f 01 	sts	0x015F, r27	; 0x80015f <max_conversion_cycles+0x3>
    14c0:	20 91 e1 00 	lds	r18, 0x00E1	; 0x8000e1 <__TEXT_REGION_LENGTH__+0x7f80e1>
    14c4:	23 70       	andi	r18, 0x03	; 3
    14c6:	04 c0       	rjmp	.+8      	; 0x14d0 <qtm_ptc_start_measurement_seq+0xc0>
    14c8:	88 0f       	add	r24, r24
    14ca:	99 1f       	adc	r25, r25
    14cc:	aa 1f       	adc	r26, r26
    14ce:	bb 1f       	adc	r27, r27
    14d0:	2a 95       	dec	r18
    14d2:	d2 f7       	brpl	.-12     	; 0x14c8 <qtm_ptc_start_measurement_seq+0xb8>
    14d4:	22 e0       	ldi	r18, 0x02	; 2
    14d6:	b6 95       	lsr	r27
    14d8:	a7 95       	ror	r26
    14da:	97 95       	ror	r25
    14dc:	87 95       	ror	r24
    14de:	2a 95       	dec	r18
    14e0:	d1 f7       	brne	.-12     	; 0x14d6 <qtm_ptc_start_measurement_seq+0xc6>
    14e2:	80 93 5c 01 	sts	0x015C, r24	; 0x80015c <max_conversion_cycles>
    14e6:	90 93 5d 01 	sts	0x015D, r25	; 0x80015d <max_conversion_cycles+0x1>
    14ea:	a0 93 5e 01 	sts	0x015E, r26	; 0x80015e <max_conversion_cycles+0x2>
    14ee:	b0 93 5f 01 	sts	0x015F, r27	; 0x80015f <max_conversion_cycles+0x3>
    14f2:	19 82       	std	Y+1, r1	; 0x01
    14f4:	1a 82       	std	Y+2, r1	; 0x02
    14f6:	1b 82       	std	Y+3, r1	; 0x03
    14f8:	1c 82       	std	Y+4, r1	; 0x04
    14fa:	21 e0       	ldi	r18, 0x01	; 1
    14fc:	49 81       	ldd	r20, Y+1	; 0x01
    14fe:	5a 81       	ldd	r21, Y+2	; 0x02
    1500:	6b 81       	ldd	r22, Y+3	; 0x03
    1502:	7c 81       	ldd	r23, Y+4	; 0x04
    1504:	48 17       	cp	r20, r24
    1506:	59 07       	cpc	r21, r25
    1508:	6a 07       	cpc	r22, r26
    150a:	7b 07       	cpc	r23, r27
    150c:	b0 f4       	brcc	.+44     	; 0x153a <qtm_ptc_start_measurement_seq+0x12a>
    150e:	30 91 5b 01 	lds	r19, 0x015B	; 0x80015b <ptc_eoc_ok_flag>
    1512:	33 23       	and	r19, r19
    1514:	29 f0       	breq	.+10     	; 0x1520 <qtm_ptc_start_measurement_seq+0x110>
    1516:	89 83       	std	Y+1, r24	; 0x01
    1518:	9a 83       	std	Y+2, r25	; 0x02
    151a:	ab 83       	std	Y+3, r26	; 0x03
    151c:	bc 83       	std	Y+4, r27	; 0x04
    151e:	20 e0       	ldi	r18, 0x00	; 0
    1520:	49 81       	ldd	r20, Y+1	; 0x01
    1522:	5a 81       	ldd	r21, Y+2	; 0x02
    1524:	6b 81       	ldd	r22, Y+3	; 0x03
    1526:	7c 81       	ldd	r23, Y+4	; 0x04
    1528:	4f 5f       	subi	r20, 0xFF	; 255
    152a:	5f 4f       	sbci	r21, 0xFF	; 255
    152c:	6f 4f       	sbci	r22, 0xFF	; 255
    152e:	7f 4f       	sbci	r23, 0xFF	; 255
    1530:	49 83       	std	Y+1, r20	; 0x01
    1532:	5a 83       	std	Y+2, r21	; 0x02
    1534:	6b 83       	std	Y+3, r22	; 0x03
    1536:	7c 83       	std	Y+4, r23	; 0x04
    1538:	e1 cf       	rjmp	.-62     	; 0x14fc <qtm_ptc_start_measurement_seq+0xec>
    153a:	22 23       	and	r18, r18
    153c:	b9 f0       	breq	.+46     	; 0x156c <qtm_ptc_start_measurement_seq+0x15c>
    153e:	80 91 e9 00 	lds	r24, 0x00E9	; 0x8000e9 <__TEXT_REGION_LENGTH__+0x7f80e9>
    1542:	80 ff       	sbrs	r24, 0
    1544:	13 c0       	rjmp	.+38     	; 0x156c <qtm_ptc_start_measurement_seq+0x15c>
    1546:	10 92 e0 00 	sts	0x00E0, r1	; 0x8000e0 <__TEXT_REGION_LENGTH__+0x7f80e0>
    154a:	00 00       	nop
    154c:	82 e1       	ldi	r24, 0x12	; 18
    154e:	80 93 e0 00 	sts	0x00E0, r24	; 0x8000e0 <__TEXT_REGION_LENGTH__+0x7f80e0>
    1552:	00 00       	nop
    1554:	81 e0       	ldi	r24, 0x01	; 1
    1556:	80 93 e9 00 	sts	0x00E9, r24	; 0x8000e9 <__TEXT_REGION_LENGTH__+0x7f80e9>
    155a:	80 91 54 01 	lds	r24, 0x0154	; 0x800154 <ptc_lockups>
    155e:	90 91 55 01 	lds	r25, 0x0155	; 0x800155 <ptc_lockups+0x1>
    1562:	01 96       	adiw	r24, 0x01	; 1
    1564:	90 93 55 01 	sts	0x0155, r25	; 0x800155 <ptc_lockups+0x1>
    1568:	80 93 54 01 	sts	0x0154, r24	; 0x800154 <ptc_lockups>
    156c:	81 e0       	ldi	r24, 0x01	; 1
    156e:	42 c0       	rjmp	.+132    	; 0x15f4 <qtm_ptc_start_measurement_seq+0x1e4>
    1570:	90 93 74 01 	sts	0x0174, r25	; 0x800174 <qtm_acquisition_control_working_set_ptr+0x1>
    1574:	80 93 73 01 	sts	0x0173, r24	; 0x800173 <qtm_acquisition_control_working_set_ptr>
    1578:	70 93 53 01 	sts	0x0153, r23	; 0x800153 <ptc_seq_measure_complete_pointer+0x1>
    157c:	60 93 52 01 	sts	0x0152, r22	; 0x800152 <ptc_seq_measure_complete_pointer>
    1580:	dc 01       	movw	r26, r24
    1582:	ed 91       	ld	r30, X+
    1584:	fc 91       	ld	r31, X
    1586:	82 81       	ldd	r24, Z+2	; 0x02
    1588:	80 34       	cpi	r24, 0x40	; 64
    158a:	11 f4       	brne	.+4      	; 0x1590 <qtm_ptc_start_measurement_seq+0x180>
    158c:	88 e0       	ldi	r24, 0x08	; 8
    158e:	03 c0       	rjmp	.+6      	; 0x1596 <qtm_ptc_start_measurement_seq+0x186>
    1590:	80 38       	cpi	r24, 0x80	; 128
    1592:	79 f5       	brne	.+94     	; 0x15f2 <qtm_ptc_start_measurement_seq+0x1e2>
    1594:	8a e0       	ldi	r24, 0x0A	; 10
    1596:	80 93 e2 00 	sts	0x00E2, r24	; 0x8000e2 <__TEXT_REGION_LENGTH__+0x7f80e2>
    159a:	e0 91 73 01 	lds	r30, 0x0173	; 0x800173 <qtm_acquisition_control_working_set_ptr>
    159e:	f0 91 74 01 	lds	r31, 0x0174	; 0x800174 <qtm_acquisition_control_working_set_ptr+0x1>
    15a2:	01 90       	ld	r0, Z+
    15a4:	f0 81       	ld	r31, Z
    15a6:	e0 2d       	mov	r30, r0
    15a8:	84 81       	ldd	r24, Z+4	; 0x04
    15aa:	80 31       	cpi	r24, 0x10	; 16
    15ac:	08 f0       	brcs	.+2      	; 0x15b0 <qtm_ptc_start_measurement_seq+0x1a0>
    15ae:	80 e1       	ldi	r24, 0x10	; 16
    15b0:	80 93 e3 00 	sts	0x00E3, r24	; 0x8000e3 <__TEXT_REGION_LENGTH__+0x7f80e3>
    15b4:	81 e0       	ldi	r24, 0x01	; 1
    15b6:	84 bb       	out	0x14, r24	; 20
    15b8:	80 93 74 00 	sts	0x0074, r24	; 0x800074 <__TEXT_REGION_LENGTH__+0x7f8074>
    15bc:	10 92 5a 01 	sts	0x015A, r1	; 0x80015a <current_measure_channel+0x1>
    15c0:	10 92 59 01 	sts	0x0159, r1	; 0x800159 <current_measure_channel>
    15c4:	0e 94 1c 07 	call	0xe38	; 0xe38 <select_next_channel_to_measure>
    15c8:	81 11       	cpse	r24, r1
    15ca:	0b c0       	rjmp	.+22     	; 0x15e2 <qtm_ptc_start_measurement_seq+0x1d2>
    15cc:	84 e0       	ldi	r24, 0x04	; 4
    15ce:	80 93 58 01 	sts	0x0158, r24	; 0x800158 <touch_seq_lib_state>
    15d2:	80 91 59 01 	lds	r24, 0x0159	; 0x800159 <current_measure_channel>
    15d6:	90 91 5a 01 	lds	r25, 0x015A	; 0x80015a <current_measure_channel+0x1>
    15da:	0e 94 4f 07 	call	0xe9e	; 0xe9e <qtm_measure_node>
    15de:	80 e0       	ldi	r24, 0x00	; 0
    15e0:	09 c0       	rjmp	.+18     	; 0x15f4 <qtm_ptc_start_measurement_seq+0x1e4>
    15e2:	82 e0       	ldi	r24, 0x02	; 2
    15e4:	80 93 58 01 	sts	0x0158, r24	; 0x800158 <touch_seq_lib_state>
    15e8:	05 c0       	rjmp	.+10     	; 0x15f4 <qtm_ptc_start_measurement_seq+0x1e4>
    15ea:	8b e0       	ldi	r24, 0x0B	; 11
    15ec:	03 c0       	rjmp	.+6      	; 0x15f4 <qtm_ptc_start_measurement_seq+0x1e4>
    15ee:	83 e0       	ldi	r24, 0x03	; 3
    15f0:	01 c0       	rjmp	.+2      	; 0x15f4 <qtm_ptc_start_measurement_seq+0x1e4>
    15f2:	82 e0       	ldi	r24, 0x02	; 2
    15f4:	0f 90       	pop	r0
    15f6:	0f 90       	pop	r0
    15f8:	0f 90       	pop	r0
    15fa:	0f 90       	pop	r0
    15fc:	df 91       	pop	r29
    15fe:	cf 91       	pop	r28
    1600:	08 95       	ret

00001602 <qtm_enable_sensor_node>:
    1602:	00 97       	sbiw	r24, 0x00	; 0
    1604:	c9 f0       	breq	.+50     	; 0x1638 <qtm_enable_sensor_node+0x36>
    1606:	dc 01       	movw	r26, r24
    1608:	ed 91       	ld	r30, X+
    160a:	fc 91       	ld	r31, X
    160c:	11 97       	sbiw	r26, 0x01	; 1
    160e:	20 81       	ld	r18, Z
    1610:	31 81       	ldd	r19, Z+1	; 0x01
    1612:	26 17       	cp	r18, r22
    1614:	37 07       	cpc	r19, r23
    1616:	90 f0       	brcs	.+36     	; 0x163c <qtm_enable_sensor_node+0x3a>
    1618:	45 e0       	ldi	r20, 0x05	; 5
    161a:	46 9f       	mul	r20, r22
    161c:	90 01       	movw	r18, r0
    161e:	47 9f       	mul	r20, r23
    1620:	30 0d       	add	r19, r0
    1622:	11 24       	eor	r1, r1
    1624:	14 96       	adiw	r26, 0x04	; 4
    1626:	ed 91       	ld	r30, X+
    1628:	fc 91       	ld	r31, X
    162a:	15 97       	sbiw	r26, 0x05	; 5
    162c:	e2 0f       	add	r30, r18
    162e:	f3 1f       	adc	r31, r19
    1630:	81 e0       	ldi	r24, 0x01	; 1
    1632:	80 83       	st	Z, r24
    1634:	80 e0       	ldi	r24, 0x00	; 0
    1636:	08 95       	ret
    1638:	8b e0       	ldi	r24, 0x0B	; 11
    163a:	08 95       	ret
    163c:	82 e0       	ldi	r24, 0x02	; 2
    163e:	08 95       	ret

00001640 <qtm_calibrate_sensor_node>:
    1640:	00 97       	sbiw	r24, 0x00	; 0
    1642:	d1 f1       	breq	.+116    	; 0x16b8 <qtm_calibrate_sensor_node+0x78>
    1644:	dc 01       	movw	r26, r24
    1646:	ed 91       	ld	r30, X+
    1648:	fc 91       	ld	r31, X
    164a:	11 97       	sbiw	r26, 0x01	; 1
    164c:	20 81       	ld	r18, Z
    164e:	31 81       	ldd	r19, Z+1	; 0x01
    1650:	26 17       	cp	r18, r22
    1652:	37 07       	cpc	r19, r23
    1654:	98 f1       	brcs	.+102    	; 0x16bc <qtm_calibrate_sensor_node+0x7c>
    1656:	22 81       	ldd	r18, Z+2	; 0x02
    1658:	14 96       	adiw	r26, 0x04	; 4
    165a:	ed 91       	ld	r30, X+
    165c:	fc 91       	ld	r31, X
    165e:	15 97       	sbiw	r26, 0x05	; 5
    1660:	20 34       	cpi	r18, 0x40	; 64
    1662:	59 f4       	brne	.+22     	; 0x167a <qtm_calibrate_sensor_node+0x3a>
    1664:	85 e0       	ldi	r24, 0x05	; 5
    1666:	86 9f       	mul	r24, r22
    1668:	d0 01       	movw	r26, r0
    166a:	87 9f       	mul	r24, r23
    166c:	b0 0d       	add	r27, r0
    166e:	11 24       	eor	r1, r1
    1670:	ae 0f       	add	r26, r30
    1672:	bf 1f       	adc	r27, r31
    1674:	84 e3       	ldi	r24, 0x34	; 52
    1676:	92 e0       	ldi	r25, 0x02	; 2
    1678:	0c c0       	rjmp	.+24     	; 0x1692 <qtm_calibrate_sensor_node+0x52>
    167a:	20 38       	cpi	r18, 0x80	; 128
    167c:	81 f4       	brne	.+32     	; 0x169e <qtm_calibrate_sensor_node+0x5e>
    167e:	85 e0       	ldi	r24, 0x05	; 5
    1680:	86 9f       	mul	r24, r22
    1682:	d0 01       	movw	r26, r0
    1684:	87 9f       	mul	r24, r23
    1686:	b0 0d       	add	r27, r0
    1688:	11 24       	eor	r1, r1
    168a:	ae 0f       	add	r26, r30
    168c:	bf 1f       	adc	r27, r31
    168e:	87 e6       	ldi	r24, 0x67	; 103
    1690:	95 e0       	ldi	r25, 0x05	; 5
    1692:	14 96       	adiw	r26, 0x04	; 4
    1694:	9c 93       	st	X, r25
    1696:	8e 93       	st	-X, r24
    1698:	13 97       	sbiw	r26, 0x03	; 3
    169a:	80 e0       	ldi	r24, 0x00	; 0
    169c:	01 c0       	rjmp	.+2      	; 0x16a0 <qtm_calibrate_sensor_node+0x60>
    169e:	82 e0       	ldi	r24, 0x02	; 2
    16a0:	95 e0       	ldi	r25, 0x05	; 5
    16a2:	96 9f       	mul	r25, r22
    16a4:	90 01       	movw	r18, r0
    16a6:	97 9f       	mul	r25, r23
    16a8:	30 0d       	add	r19, r0
    16aa:	11 24       	eor	r1, r1
    16ac:	e2 0f       	add	r30, r18
    16ae:	f3 1f       	adc	r31, r19
    16b0:	90 81       	ld	r25, Z
    16b2:	92 60       	ori	r25, 0x02	; 2
    16b4:	90 83       	st	Z, r25
    16b6:	08 95       	ret
    16b8:	8b e0       	ldi	r24, 0x0B	; 11
    16ba:	08 95       	ret
    16bc:	82 e0       	ldi	r24, 0x02	; 2
    16be:	08 95       	ret

000016c0 <qtm_m328pb_ptc_handler_eoc>:
    16c0:	10 92 e0 00 	sts	0x00E0, r1	; 0x8000e0 <__TEXT_REGION_LENGTH__+0x7f80e0>
    16c4:	81 e0       	ldi	r24, 0x01	; 1
    16c6:	80 93 5b 01 	sts	0x015B, r24	; 0x80015b <ptc_eoc_ok_flag>
    16ca:	80 91 ee 00 	lds	r24, 0x00EE	; 0x8000ee <__TEXT_REGION_LENGTH__+0x7f80ee>
    16ce:	60 91 ef 00 	lds	r22, 0x00EF	; 0x8000ef <__TEXT_REGION_LENGTH__+0x7f80ef>
    16d2:	20 91 59 01 	lds	r18, 0x0159	; 0x800159 <current_measure_channel>
    16d6:	30 91 5a 01 	lds	r19, 0x015A	; 0x80015a <current_measure_channel+0x1>
    16da:	a9 01       	movw	r20, r18
    16dc:	44 0f       	add	r20, r20
    16de:	55 1f       	adc	r21, r21
    16e0:	e0 91 75 01 	lds	r30, 0x0175	; 0x800175 <qtm_raw_data_measurements_ptr>
    16e4:	f0 91 76 01 	lds	r31, 0x0176	; 0x800176 <qtm_raw_data_measurements_ptr+0x1>
    16e8:	e4 0f       	add	r30, r20
    16ea:	f5 1f       	adc	r31, r21
    16ec:	90 e0       	ldi	r25, 0x00	; 0
    16ee:	96 2b       	or	r25, r22
    16f0:	91 83       	std	Z+1, r25	; 0x01
    16f2:	80 83       	st	Z, r24
    16f4:	80 91 56 01 	lds	r24, 0x0156	; 0x800156 <good_eocs>
    16f8:	90 91 57 01 	lds	r25, 0x0157	; 0x800157 <good_eocs+0x1>
    16fc:	01 96       	adiw	r24, 0x01	; 1
    16fe:	90 93 57 01 	sts	0x0157, r25	; 0x800157 <good_eocs+0x1>
    1702:	80 93 56 01 	sts	0x0156, r24	; 0x800156 <good_eocs>
    1706:	89 2b       	or	r24, r25
    1708:	21 f4       	brne	.+8      	; 0x1712 <qtm_m328pb_ptc_handler_eoc+0x52>
    170a:	10 92 55 01 	sts	0x0155, r1	; 0x800155 <ptc_lockups+0x1>
    170e:	10 92 54 01 	sts	0x0154, r1	; 0x800154 <ptc_lockups>
    1712:	2f 5f       	subi	r18, 0xFF	; 255
    1714:	3f 4f       	sbci	r19, 0xFF	; 255
    1716:	30 93 5a 01 	sts	0x015A, r19	; 0x80015a <current_measure_channel+0x1>
    171a:	20 93 59 01 	sts	0x0159, r18	; 0x800159 <current_measure_channel>
    171e:	0e 94 1c 07 	call	0xe38	; 0xe38 <select_next_channel_to_measure>
    1722:	81 11       	cpse	r24, r1
    1724:	09 c0       	rjmp	.+18     	; 0x1738 <qtm_m328pb_ptc_handler_eoc+0x78>
    1726:	84 e0       	ldi	r24, 0x04	; 4
    1728:	80 93 58 01 	sts	0x0158, r24	; 0x800158 <touch_seq_lib_state>
    172c:	80 91 59 01 	lds	r24, 0x0159	; 0x800159 <current_measure_channel>
    1730:	90 91 5a 01 	lds	r25, 0x015A	; 0x80015a <current_measure_channel+0x1>
    1734:	0c 94 4f 07 	jmp	0xe9e	; 0xe9e <qtm_measure_node>
    1738:	e0 91 52 01 	lds	r30, 0x0152	; 0x800152 <ptc_seq_measure_complete_pointer>
    173c:	f0 91 53 01 	lds	r31, 0x0153	; 0x800153 <ptc_seq_measure_complete_pointer+0x1>
    1740:	09 94       	ijmp

00001742 <__umulhisi3>:
    1742:	a2 9f       	mul	r26, r18
    1744:	b0 01       	movw	r22, r0
    1746:	b3 9f       	mul	r27, r19
    1748:	c0 01       	movw	r24, r0
    174a:	a3 9f       	mul	r26, r19
    174c:	70 0d       	add	r23, r0
    174e:	81 1d       	adc	r24, r1
    1750:	11 24       	eor	r1, r1
    1752:	91 1d       	adc	r25, r1
    1754:	b2 9f       	mul	r27, r18
    1756:	70 0d       	add	r23, r0
    1758:	81 1d       	adc	r24, r1
    175a:	11 24       	eor	r1, r1
    175c:	91 1d       	adc	r25, r1
    175e:	08 95       	ret

00001760 <_exit>:
    1760:	f8 94       	cli

00001762 <__stop_program>:
    1762:	ff cf       	rjmp	.-2      	; 0x1762 <__stop_program>
