
Catch_The_Light.elf:     file format elf32-avr

Sections:
Idx Name          Size      VMA       LMA       File off  Algn
  0 .data         00000014  00800100  000003fc  00000490  2**0
                  CONTENTS, ALLOC, LOAD, DATA
  1 .text         000003fc  00000000  00000000  00000094  2**1
                  CONTENTS, ALLOC, LOAD, READONLY, CODE
  2 .bss          00000004  00800114  00800114  000004a4  2**0
                  ALLOC
  3 .comment      00000030  00000000  00000000  000004a4  2**0
                  CONTENTS, READONLY
  4 .note.gnu.avr.deviceinfo 00000040  00000000  00000000  000004d4  2**2
                  CONTENTS, READONLY
  5 .debug_aranges 00000060  00000000  00000000  00000514  2**0
                  CONTENTS, READONLY, DEBUGGING
  6 .debug_info   00000c5d  00000000  00000000  00000574  2**0
                  CONTENTS, READONLY, DEBUGGING
  7 .debug_abbrev 00000a0f  00000000  00000000  000011d1  2**0
                  CONTENTS, READONLY, DEBUGGING
  8 .debug_line   000004e4  00000000  00000000  00001be0  2**0
                  CONTENTS, READONLY, DEBUGGING
  9 .debug_frame  00000144  00000000  00000000  000020c4  2**2
                  CONTENTS, READONLY, DEBUGGING
 10 .debug_str    00000558  00000000  00000000  00002208  2**0
                  CONTENTS, READONLY, DEBUGGING
 11 .debug_loc    000003a5  00000000  00000000  00002760  2**0
                  CONTENTS, READONLY, DEBUGGING
 12 .debug_ranges 00000050  00000000  00000000  00002b05  2**0
                  CONTENTS, READONLY, DEBUGGING

Disassembly of section .text:

00000000 <__vectors>:
   0:	0c 94 5a 00 	jmp	0xb4	; 0xb4 <__ctors_end>
   4:	0c 94 77 00 	jmp	0xee	; 0xee <__bad_interrupt>
   8:	0c 94 77 00 	jmp	0xee	; 0xee <__bad_interrupt>
   c:	0c 94 77 00 	jmp	0xee	; 0xee <__bad_interrupt>
  10:	0c 94 4e 01 	jmp	0x29c	; 0x29c <__vector_4>
  14:	0c 94 77 00 	jmp	0xee	; 0xee <__bad_interrupt>
  18:	0c 94 77 00 	jmp	0xee	; 0xee <__bad_interrupt>
  1c:	0c 94 77 00 	jmp	0xee	; 0xee <__bad_interrupt>
  20:	0c 94 77 00 	jmp	0xee	; 0xee <__bad_interrupt>
  24:	0c 94 77 00 	jmp	0xee	; 0xee <__bad_interrupt>
  28:	0c 94 77 00 	jmp	0xee	; 0xee <__bad_interrupt>
  2c:	0c 94 d0 01 	jmp	0x3a0	; 0x3a0 <__vector_11>
  30:	0c 94 77 00 	jmp	0xee	; 0xee <__bad_interrupt>
  34:	0c 94 77 00 	jmp	0xee	; 0xee <__bad_interrupt>
  38:	0c 94 77 00 	jmp	0xee	; 0xee <__bad_interrupt>
  3c:	0c 94 77 00 	jmp	0xee	; 0xee <__bad_interrupt>
  40:	0c 94 77 00 	jmp	0xee	; 0xee <__bad_interrupt>
  44:	0c 94 77 00 	jmp	0xee	; 0xee <__bad_interrupt>
  48:	0c 94 77 00 	jmp	0xee	; 0xee <__bad_interrupt>
  4c:	0c 94 77 00 	jmp	0xee	; 0xee <__bad_interrupt>
  50:	0c 94 77 00 	jmp	0xee	; 0xee <__bad_interrupt>
  54:	0c 94 77 00 	jmp	0xee	; 0xee <__bad_interrupt>
  58:	0c 94 77 00 	jmp	0xee	; 0xee <__bad_interrupt>
  5c:	0c 94 77 00 	jmp	0xee	; 0xee <__bad_interrupt>
  60:	0c 94 77 00 	jmp	0xee	; 0xee <__bad_interrupt>
  64:	0c 94 77 00 	jmp	0xee	; 0xee <__bad_interrupt>
  68:	0c 94 77 00 	jmp	0xee	; 0xee <__bad_interrupt>
  6c:	0c 94 77 00 	jmp	0xee	; 0xee <__bad_interrupt>
  70:	0c 94 77 00 	jmp	0xee	; 0xee <__bad_interrupt>
  74:	0c 94 77 00 	jmp	0xee	; 0xee <__bad_interrupt>
  78:	0c 94 77 00 	jmp	0xee	; 0xee <__bad_interrupt>
  7c:	0c 94 77 00 	jmp	0xee	; 0xee <__bad_interrupt>
  80:	0c 94 77 00 	jmp	0xee	; 0xee <__bad_interrupt>
  84:	0c 94 77 00 	jmp	0xee	; 0xee <__bad_interrupt>
  88:	0c 94 77 00 	jmp	0xee	; 0xee <__bad_interrupt>
  8c:	0c 94 77 00 	jmp	0xee	; 0xee <__bad_interrupt>
  90:	0c 94 77 00 	jmp	0xee	; 0xee <__bad_interrupt>
  94:	0c 94 77 00 	jmp	0xee	; 0xee <__bad_interrupt>
  98:	0c 94 77 00 	jmp	0xee	; 0xee <__bad_interrupt>
  9c:	0c 94 77 00 	jmp	0xee	; 0xee <__bad_interrupt>
  a0:	0c 94 77 00 	jmp	0xee	; 0xee <__bad_interrupt>
  a4:	0c 94 77 00 	jmp	0xee	; 0xee <__bad_interrupt>
  a8:	0c 94 77 00 	jmp	0xee	; 0xee <__bad_interrupt>
  ac:	0c 94 77 00 	jmp	0xee	; 0xee <__bad_interrupt>
  b0:	0c 94 77 00 	jmp	0xee	; 0xee <__bad_interrupt>

000000b4 <__ctors_end>:
  b4:	11 24       	eor	r1, r1
  b6:	1f be       	out	0x3f, r1	; 63
  b8:	cf ef       	ldi	r28, 0xFF	; 255
  ba:	d8 e0       	ldi	r29, 0x08	; 8
  bc:	de bf       	out	0x3e, r29	; 62
  be:	cd bf       	out	0x3d, r28	; 61

000000c0 <__do_copy_data>:
  c0:	11 e0       	ldi	r17, 0x01	; 1
  c2:	a0 e0       	ldi	r26, 0x00	; 0
  c4:	b1 e0       	ldi	r27, 0x01	; 1
  c6:	ec ef       	ldi	r30, 0xFC	; 252
  c8:	f3 e0       	ldi	r31, 0x03	; 3
  ca:	02 c0       	rjmp	.+4      	; 0xd0 <__do_copy_data+0x10>
  cc:	05 90       	lpm	r0, Z+
  ce:	0d 92       	st	X+, r0
  d0:	a4 31       	cpi	r26, 0x14	; 20
  d2:	b1 07       	cpc	r27, r17
  d4:	d9 f7       	brne	.-10     	; 0xcc <__do_copy_data+0xc>

000000d6 <__do_clear_bss>:
  d6:	21 e0       	ldi	r18, 0x01	; 1
  d8:	a4 e1       	ldi	r26, 0x14	; 20
  da:	b1 e0       	ldi	r27, 0x01	; 1
  dc:	01 c0       	rjmp	.+2      	; 0xe0 <.do_clear_bss_start>

000000de <.do_clear_bss_loop>:
  de:	1d 92       	st	X+, r1

000000e0 <.do_clear_bss_start>:
  e0:	a8 31       	cpi	r26, 0x18	; 24
  e2:	b2 07       	cpc	r27, r18
  e4:	e1 f7       	brne	.-8      	; 0xde <.do_clear_bss_loop>
  e6:	0e 94 1c 01 	call	0x238	; 0x238 <main>
  ea:	0c 94 fc 01 	jmp	0x3f8	; 0x3f8 <_exit>

000000ee <__bad_interrupt>:
  ee:	0c 94 00 00 	jmp	0	; 0x0 <__vectors>

000000f2 <FlashPort>:
	{
		_delay_ms(10);
	}*/
	//TCNT1 = Delay;
	OCR1A = Delay;
}
  f2:	9c 01       	movw	r18, r24
  f4:	24 50       	subi	r18, 0x04	; 4
  f6:	31 09       	sbc	r19, r1
  f8:	29 30       	cpi	r18, 0x09	; 9
  fa:	31 05       	cpc	r19, r1
  fc:	80 f0       	brcs	.+32     	; 0x11e <FlashPort+0x2c>
  fe:	4b b1       	in	r20, 0x0b	; 11
 100:	fc 01       	movw	r30, r24
 102:	ec 5f       	subi	r30, 0xFC	; 252
 104:	fe 4f       	sbci	r31, 0xFE	; 254
 106:	21 e0       	ldi	r18, 0x01	; 1
 108:	30 e0       	ldi	r19, 0x00	; 0
 10a:	c9 01       	movw	r24, r18
 10c:	00 80       	ld	r0, Z
 10e:	02 c0       	rjmp	.+4      	; 0x114 <FlashPort+0x22>
 110:	88 0f       	add	r24, r24
 112:	99 1f       	adc	r25, r25
 114:	0a 94       	dec	r0
 116:	e2 f7       	brpl	.-8      	; 0x110 <FlashPort+0x1e>
 118:	84 2b       	or	r24, r20
 11a:	8b b9       	out	0x0b, r24	; 11
 11c:	08 95       	ret
 11e:	88 30       	cpi	r24, 0x08	; 8
 120:	91 05       	cpc	r25, r1
 122:	84 f4       	brge	.+32     	; 0x144 <FlashPort+0x52>
 124:	48 b1       	in	r20, 0x08	; 8
 126:	fc 01       	movw	r30, r24
 128:	ec 5f       	subi	r30, 0xFC	; 252
 12a:	fe 4f       	sbci	r31, 0xFE	; 254
 12c:	21 e0       	ldi	r18, 0x01	; 1
 12e:	30 e0       	ldi	r19, 0x00	; 0
 130:	c9 01       	movw	r24, r18
 132:	00 80       	ld	r0, Z
 134:	02 c0       	rjmp	.+4      	; 0x13a <FlashPort+0x48>
 136:	88 0f       	add	r24, r24
 138:	99 1f       	adc	r25, r25
 13a:	0a 94       	dec	r0
 13c:	e2 f7       	brpl	.-8      	; 0x136 <FlashPort+0x44>
 13e:	84 2b       	or	r24, r20
 140:	88 b9       	out	0x08, r24	; 8
 142:	08 95       	ret
 144:	45 b1       	in	r20, 0x05	; 5
 146:	fc 01       	movw	r30, r24
 148:	ec 5f       	subi	r30, 0xFC	; 252
 14a:	fe 4f       	sbci	r31, 0xFE	; 254
 14c:	21 e0       	ldi	r18, 0x01	; 1
 14e:	30 e0       	ldi	r19, 0x00	; 0
 150:	c9 01       	movw	r24, r18
 152:	00 80       	ld	r0, Z
 154:	02 c0       	rjmp	.+4      	; 0x15a <FlashPort+0x68>
 156:	88 0f       	add	r24, r24
 158:	99 1f       	adc	r25, r25
 15a:	0a 94       	dec	r0
 15c:	e2 f7       	brpl	.-8      	; 0x156 <FlashPort+0x64>
 15e:	84 2b       	or	r24, r20
 160:	85 b9       	out	0x05, r24	; 5
 162:	08 95       	ret

00000164 <Cycle_lights>:
 164:	8b b1       	in	r24, 0x0b	; 11
 166:	1b b8       	out	0x0b, r1	; 11
 168:	85 b1       	in	r24, 0x05	; 5
 16a:	15 b8       	out	0x05, r1	; 5
 16c:	88 b1       	in	r24, 0x08	; 8
 16e:	18 b8       	out	0x08, r1	; 8
 170:	80 91 16 01 	lds	r24, 0x0116	; 0x800116 <Flashreg>
 174:	90 91 17 01 	lds	r25, 0x0117	; 0x800117 <Flashreg+0x1>
 178:	0e 94 79 00 	call	0xf2	; 0xf2 <FlashPort>
 17c:	80 91 16 01 	lds	r24, 0x0116	; 0x800116 <Flashreg>
 180:	90 91 17 01 	lds	r25, 0x0117	; 0x800117 <Flashreg+0x1>
 184:	01 96       	adiw	r24, 0x01	; 1
 186:	8f 70       	andi	r24, 0x0F	; 15
 188:	99 27       	eor	r25, r25
 18a:	90 93 17 01 	sts	0x0117, r25	; 0x800117 <Flashreg+0x1>
 18e:	80 93 16 01 	sts	0x0116, r24	; 0x800116 <Flashreg>
 192:	08 95       	ret

00000194 <Cycle_lights_Rev>:
 194:	8b b1       	in	r24, 0x0b	; 11
 196:	1b b8       	out	0x0b, r1	; 11
 198:	85 b1       	in	r24, 0x05	; 5
 19a:	15 b8       	out	0x05, r1	; 5
 19c:	88 b1       	in	r24, 0x08	; 8
 19e:	18 b8       	out	0x08, r1	; 8
 1a0:	80 91 16 01 	lds	r24, 0x0116	; 0x800116 <Flashreg>
 1a4:	90 91 17 01 	lds	r25, 0x0117	; 0x800117 <Flashreg+0x1>
 1a8:	0e 94 79 00 	call	0xf2	; 0xf2 <FlashPort>
 1ac:	80 91 16 01 	lds	r24, 0x0116	; 0x800116 <Flashreg>
 1b0:	90 91 17 01 	lds	r25, 0x0117	; 0x800117 <Flashreg+0x1>
 1b4:	01 97       	sbiw	r24, 0x01	; 1
 1b6:	2a f0       	brmi	.+10     	; 0x1c2 <Cycle_lights_Rev+0x2e>
 1b8:	90 93 17 01 	sts	0x0117, r25	; 0x800117 <Flashreg+0x1>
 1bc:	80 93 16 01 	sts	0x0116, r24	; 0x800116 <Flashreg>
 1c0:	08 95       	ret
 1c2:	8f e0       	ldi	r24, 0x0F	; 15
 1c4:	90 e0       	ldi	r25, 0x00	; 0
 1c6:	90 93 17 01 	sts	0x0117, r25	; 0x800117 <Flashreg+0x1>
 1ca:	80 93 16 01 	sts	0x0116, r24	; 0x800116 <Flashreg>
 1ce:	08 95       	ret

000001d0 <Light_Direction>:
 1d0:	80 91 02 01 	lds	r24, 0x0102	; 0x800102 <Direction>
 1d4:	90 91 03 01 	lds	r25, 0x0103	; 0x800103 <Direction+0x1>
 1d8:	89 2b       	or	r24, r25
 1da:	19 f0       	breq	.+6      	; 0x1e2 <Light_Direction+0x12>
 1dc:	0e 94 b2 00 	call	0x164	; 0x164 <Cycle_lights>
 1e0:	08 95       	ret
 1e2:	0e 94 ca 00 	call	0x194	; 0x194 <Cycle_lights_Rev>
 1e6:	08 95       	ret

000001e8 <All_On>:
 1e8:	ac 01       	movw	r20, r24
 1ea:	18 16       	cp	r1, r24
 1ec:	19 06       	cpc	r1, r25
 1ee:	1c f5       	brge	.+70     	; 0x236 <All_On+0x4e>
 1f0:	20 e0       	ldi	r18, 0x00	; 0
 1f2:	30 e0       	ldi	r19, 0x00	; 0
 1f4:	85 b1       	in	r24, 0x05	; 5
 1f6:	15 b8       	out	0x05, r1	; 5
 1f8:	9b b1       	in	r25, 0x0b	; 11
 1fa:	98 70       	andi	r25, 0x08	; 8
 1fc:	9b b9       	out	0x0b, r25	; 11
 1fe:	88 b1       	in	r24, 0x08	; 8
 200:	18 b8       	out	0x08, r1	; 8
 202:	87 ea       	ldi	r24, 0xA7	; 167
 204:	91 e6       	ldi	r25, 0x61	; 97
 206:	01 97       	sbiw	r24, 0x01	; 1
 208:	f1 f7       	brne	.-4      	; 0x206 <All_On+0x1e>
 20a:	00 c0       	rjmp	.+0      	; 0x20c <All_On+0x24>
 20c:	00 00       	nop
 20e:	95 b1       	in	r25, 0x05	; 5
 210:	9f 61       	ori	r25, 0x1F	; 31
 212:	95 b9       	out	0x05, r25	; 5
 214:	9b b1       	in	r25, 0x0b	; 11
 216:	9f 6e       	ori	r25, 0xEF	; 239
 218:	9b b9       	out	0x0b, r25	; 11
 21a:	98 b1       	in	r25, 0x08	; 8
 21c:	9c 63       	ori	r25, 0x3C	; 60
 21e:	98 b9       	out	0x08, r25	; 8
 220:	87 ea       	ldi	r24, 0xA7	; 167
 222:	91 e6       	ldi	r25, 0x61	; 97
 224:	01 97       	sbiw	r24, 0x01	; 1
 226:	f1 f7       	brne	.-4      	; 0x224 <All_On+0x3c>
 228:	00 c0       	rjmp	.+0      	; 0x22a <All_On+0x42>
 22a:	00 00       	nop
 22c:	2f 5f       	subi	r18, 0xFF	; 255
 22e:	3f 4f       	sbci	r19, 0xFF	; 255
 230:	42 17       	cp	r20, r18
 232:	53 07       	cpc	r21, r19
 234:	f9 f6       	brne	.-66     	; 0x1f4 <All_On+0xc>
 236:	08 95       	ret

00000238 <main>:
 238:	8a b1       	in	r24, 0x0a	; 10
 23a:	8f ef       	ldi	r24, 0xFF	; 255
 23c:	8a b9       	out	0x0a, r24	; 10
 23e:	84 b1       	in	r24, 0x04	; 4
 240:	8f 67       	ori	r24, 0x7F	; 127
 242:	84 b9       	out	0x04, r24	; 4
 244:	8d ef       	ldi	r24, 0xFD	; 253
 246:	87 b9       	out	0x07, r24	; 7
 248:	41 9a       	sbi	0x08, 1	; 8
 24a:	8b b1       	in	r24, 0x0b	; 11
 24c:	8b b9       	out	0x0b, r24	; 11
 24e:	2f 9a       	sbi	0x05, 7	; 5
 250:	10 92 80 00 	sts	0x0080, r1	; 0x800080 <__TEXT_REGION_LENGTH__+0x7e0080>
 254:	8c e0       	ldi	r24, 0x0C	; 12
 256:	80 93 81 00 	sts	0x0081, r24	; 0x800081 <__TEXT_REGION_LENGTH__+0x7e0081>
 25a:	10 92 82 00 	sts	0x0082, r1	; 0x800082 <__TEXT_REGION_LENGTH__+0x7e0082>
 25e:	80 91 00 01 	lds	r24, 0x0100	; 0x800100 <Delay_Time>
 262:	90 91 01 01 	lds	r25, 0x0101	; 0x800101 <Delay_Time+0x1>
 266:	90 93 89 00 	sts	0x0089, r25	; 0x800089 <__TEXT_REGION_LENGTH__+0x7e0089>
 26a:	80 93 88 00 	sts	0x0088, r24	; 0x800088 <__TEXT_REGION_LENGTH__+0x7e0088>
 26e:	10 92 85 00 	sts	0x0085, r1	; 0x800085 <__TEXT_REGION_LENGTH__+0x7e0085>
 272:	10 92 84 00 	sts	0x0084, r1	; 0x800084 <__TEXT_REGION_LENGTH__+0x7e0084>
 276:	82 e0       	ldi	r24, 0x02	; 2
 278:	80 93 6f 00 	sts	0x006F, r24	; 0x80006f <__TEXT_REGION_LENGTH__+0x7e006f>
 27c:	e8 e6       	ldi	r30, 0x68	; 104
 27e:	f0 e0       	ldi	r31, 0x00	; 0
 280:	80 81       	ld	r24, Z
 282:	82 60       	ori	r24, 0x02	; 2
 284:	80 83       	st	Z, r24
 286:	ec e6       	ldi	r30, 0x6C	; 108
 288:	f0 e0       	ldi	r31, 0x00	; 0
 28a:	80 81       	ld	r24, Z
 28c:	82 60       	ori	r24, 0x02	; 2
 28e:	80 83       	st	Z, r24
 290:	78 94       	sei
 292:	85 e0       	ldi	r24, 0x05	; 5
 294:	90 e0       	ldi	r25, 0x00	; 0
 296:	0e 94 f4 00 	call	0x1e8	; 0x1e8 <All_On>
 29a:	ff cf       	rjmp	.-2      	; 0x29a <main+0x62>

0000029c <__vector_4>:

ISR(PCINT1_vect)
{
 29c:	1f 92       	push	r1
 29e:	0f 92       	push	r0
 2a0:	0f b6       	in	r0, 0x3f	; 63
 2a2:	0f 92       	push	r0
 2a4:	11 24       	eor	r1, r1
 2a6:	2f 93       	push	r18
 2a8:	3f 93       	push	r19
 2aa:	4f 93       	push	r20
 2ac:	5f 93       	push	r21
 2ae:	6f 93       	push	r22
 2b0:	7f 93       	push	r23
 2b2:	8f 93       	push	r24
 2b4:	9f 93       	push	r25
 2b6:	af 93       	push	r26
 2b8:	bf 93       	push	r27
 2ba:	ef 93       	push	r30
 2bc:	ff 93       	push	r31
	if( (PINC & (1<<button)) == 0 ) //button goes low
 2be:	31 99       	sbic	0x06, 1	; 6
 2c0:	5e c0       	rjmp	.+188    	; 0x37e <__vector_4+0xe2>
	{
		if(Flashreg == 0)
 2c2:	80 91 16 01 	lds	r24, 0x0116	; 0x800116 <Flashreg>
 2c6:	90 91 17 01 	lds	r25, 0x0117	; 0x800117 <Flashreg+0x1>
 2ca:	89 2b       	or	r24, r25
 2cc:	c9 f5       	brne	.+114    	; 0x340 <__vector_4+0xa4>
		{
			All_On(5);
 2ce:	85 e0       	ldi	r24, 0x05	; 5
 2d0:	90 e0       	ldi	r25, 0x00	; 0
 2d2:	0e 94 f4 00 	call	0x1e8	; 0x1e8 <All_On>
			Direction ^= 1;
 2d6:	80 91 02 01 	lds	r24, 0x0102	; 0x800102 <Direction>
 2da:	90 91 03 01 	lds	r25, 0x0103	; 0x800103 <Direction+0x1>
 2de:	21 e0       	ldi	r18, 0x01	; 1
 2e0:	82 27       	eor	r24, r18
 2e2:	90 93 03 01 	sts	0x0103, r25	; 0x800103 <Direction+0x1>
 2e6:	80 93 02 01 	sts	0x0102, r24	; 0x800102 <Direction>
			if(Win_time > 1)
 2ea:	80 91 14 01 	lds	r24, 0x0114	; 0x800114 <__data_end>
 2ee:	90 91 15 01 	lds	r25, 0x0115	; 0x800115 <__data_end+0x1>
 2f2:	02 97       	sbiw	r24, 0x02	; 2
 2f4:	dc f0       	brlt	.+54     	; 0x32c <__vector_4+0x90>
			{
				Delay_Time -= 78; //subtract 20ms
 2f6:	80 91 00 01 	lds	r24, 0x0100	; 0x800100 <Delay_Time>
 2fa:	90 91 01 01 	lds	r25, 0x0101	; 0x800101 <Delay_Time+0x1>
 2fe:	8e 54       	subi	r24, 0x4E	; 78
 300:	91 09       	sbc	r25, r1
 302:	90 93 01 01 	sts	0x0101, r25	; 0x800101 <Delay_Time+0x1>
 306:	80 93 00 01 	sts	0x0100, r24	; 0x800100 <Delay_Time>
				if(Delay_Time < 1)
 30a:	80 91 00 01 	lds	r24, 0x0100	; 0x800100 <Delay_Time>
 30e:	90 91 01 01 	lds	r25, 0x0101	; 0x800101 <Delay_Time+0x1>
 312:	18 16       	cp	r1, r24
 314:	19 06       	cpc	r1, r25
 316:	54 f0       	brlt	.+20     	; 0x32c <__vector_4+0x90>
				{
					Delay_Time = 390; //reset to 100ms
 318:	86 e8       	ldi	r24, 0x86	; 134
 31a:	91 e0       	ldi	r25, 0x01	; 1
 31c:	90 93 01 01 	sts	0x0101, r25	; 0x800101 <Delay_Time+0x1>
 320:	80 93 00 01 	sts	0x0100, r24	; 0x800100 <Delay_Time>
					Win_time = 0;
 324:	10 92 15 01 	sts	0x0115, r1	; 0x800115 <__data_end+0x1>
 328:	10 92 14 01 	sts	0x0114, r1	; 0x800114 <__data_end>
				}
			}
			Win_time++;
 32c:	80 91 14 01 	lds	r24, 0x0114	; 0x800114 <__data_end>
 330:	90 91 15 01 	lds	r25, 0x0115	; 0x800115 <__data_end+0x1>
 334:	01 96       	adiw	r24, 0x01	; 1
 336:	90 93 15 01 	sts	0x0115, r25	; 0x800115 <__data_end+0x1>
 33a:	80 93 14 01 	sts	0x0114, r24	; 0x800114 <__data_end>
 33e:	1f c0       	rjmp	.+62     	; 0x37e <__vector_4+0xe2>
		}
		else
		{
			PORTD &= 0x0; //turn off all led
 340:	8b b1       	in	r24, 0x0b	; 11
 342:	1b b8       	out	0x0b, r1	; 11
			PORTB &= 0x0;
 344:	85 b1       	in	r24, 0x05	; 5
 346:	15 b8       	out	0x05, r1	; 5
			PORTC &= 0x0;
 348:	88 b1       	in	r24, 0x08	; 8
 34a:	18 b8       	out	0x08, r1	; 8
			
			FlashPort(Flashreg);
 34c:	80 91 16 01 	lds	r24, 0x0116	; 0x800116 <Flashreg>
 350:	90 91 17 01 	lds	r25, 0x0117	; 0x800117 <Flashreg+0x1>
 354:	0e 94 79 00 	call	0xf2	; 0xf2 <FlashPort>
	#else
		//round up by default
		__ticks_dc = (uint32_t)(ceil(fabs(__tmp)));
	#endif

	__builtin_avr_delay_cycles(__ticks_dc);
 358:	8f e3       	ldi	r24, 0x3F	; 63
 35a:	9d e0       	ldi	r25, 0x0D	; 13
 35c:	23 e0       	ldi	r18, 0x03	; 3
 35e:	81 50       	subi	r24, 0x01	; 1
 360:	90 40       	sbci	r25, 0x00	; 0
 362:	20 40       	sbci	r18, 0x00	; 0
 364:	e1 f7       	brne	.-8      	; 0x35e <__vector_4+0xc2>
 366:	00 c0       	rjmp	.+0      	; 0x368 <__vector_4+0xcc>
 368:	00 00       	nop
			
			//mydelay(3906); //delay 1 second
			_delay_ms(1000);	
			Delay_Time = 390; //100 ms
 36a:	86 e8       	ldi	r24, 0x86	; 134
 36c:	91 e0       	ldi	r25, 0x01	; 1
 36e:	90 93 01 01 	sts	0x0101, r25	; 0x800101 <Delay_Time+0x1>
 372:	80 93 00 01 	sts	0x0100, r24	; 0x800100 <Delay_Time>
			Win_time = 0;
 376:	10 92 15 01 	sts	0x0115, r1	; 0x800115 <__data_end+0x1>
 37a:	10 92 14 01 	sts	0x0114, r1	; 0x800114 <__data_end>
		}
	}
}
 37e:	ff 91       	pop	r31
 380:	ef 91       	pop	r30
 382:	bf 91       	pop	r27
 384:	af 91       	pop	r26
 386:	9f 91       	pop	r25
 388:	8f 91       	pop	r24
 38a:	7f 91       	pop	r23
 38c:	6f 91       	pop	r22
 38e:	5f 91       	pop	r21
 390:	4f 91       	pop	r20
 392:	3f 91       	pop	r19
 394:	2f 91       	pop	r18
 396:	0f 90       	pop	r0
 398:	0f be       	out	0x3f, r0	; 63
 39a:	0f 90       	pop	r0
 39c:	1f 90       	pop	r1
 39e:	18 95       	reti

000003a0 <__vector_11>:

ISR(TIMER1_COMPA_vect)
{
 3a0:	1f 92       	push	r1
 3a2:	0f 92       	push	r0
 3a4:	0f b6       	in	r0, 0x3f	; 63
 3a6:	0f 92       	push	r0
 3a8:	11 24       	eor	r1, r1
 3aa:	2f 93       	push	r18
 3ac:	3f 93       	push	r19
 3ae:	4f 93       	push	r20
 3b0:	5f 93       	push	r21
 3b2:	6f 93       	push	r22
 3b4:	7f 93       	push	r23
 3b6:	8f 93       	push	r24
 3b8:	9f 93       	push	r25
 3ba:	af 93       	push	r26
 3bc:	bf 93       	push	r27
 3be:	ef 93       	push	r30
 3c0:	ff 93       	push	r31
	OCR1A = Delay_Time;
 3c2:	80 91 00 01 	lds	r24, 0x0100	; 0x800100 <Delay_Time>
 3c6:	90 91 01 01 	lds	r25, 0x0101	; 0x800101 <Delay_Time+0x1>
 3ca:	90 93 89 00 	sts	0x0089, r25	; 0x800089 <__TEXT_REGION_LENGTH__+0x7e0089>
 3ce:	80 93 88 00 	sts	0x0088, r24	; 0x800088 <__TEXT_REGION_LENGTH__+0x7e0088>
	Light_Direction();
 3d2:	0e 94 e8 00 	call	0x1d0	; 0x1d0 <Light_Direction>
}
 3d6:	ff 91       	pop	r31
 3d8:	ef 91       	pop	r30
 3da:	bf 91       	pop	r27
 3dc:	af 91       	pop	r26
 3de:	9f 91       	pop	r25
 3e0:	8f 91       	pop	r24
 3e2:	7f 91       	pop	r23
 3e4:	6f 91       	pop	r22
 3e6:	5f 91       	pop	r21
 3e8:	4f 91       	pop	r20
 3ea:	3f 91       	pop	r19
 3ec:	2f 91       	pop	r18
 3ee:	0f 90       	pop	r0
 3f0:	0f be       	out	0x3f, r0	; 63
 3f2:	0f 90       	pop	r0
 3f4:	1f 90       	pop	r1
 3f6:	18 95       	reti

000003f8 <_exit>:
 3f8:	f8 94       	cli

000003fa <__stop_program>:
 3fa:	ff cf       	rjmp	.-2      	; 0x3fa <__stop_program>
